ccopy_reg
_reconstructor
p1
(cpsychopy.data
ExperimentHandler
p2
c__builtin__
object
p3
NtRp4
(dp5
S'originPath'
p6
NsS'dataFileName'
p7
V/Users/chelseaharmon/Dropbox/danlab/Tasks/motorSequenceLearning/sequenceLearning/data/001_sequenceLearningTask_2018_Feb_21_1545
p8
sS'runtimeInfo'
p9
NsS'name'
p10
S'sequenceLearningTask'
p11
sS'dataNames'
p12
(lp13
S'trialCorrect'
p14
aS'key_resp_9.keys'
p15
aS'key_resp_9.corr'
p16
aS'key_resp_9.rt'
p17
asS'autoLog'
p18
I01
sS'extraInfo'
p19
(dp20
S'date'
p21
V2018_Feb_21_1545
p22
sS'frameRate'
p23
cnumpy.core.multiarray
scalar
p24
(cnumpy
dtype
p25
(S'f8'
I0
I1
tRp26
(I3
S'<'
NNNI-1
I-1
I0
tbS'\xbdx\xaa\xd2\x9e\xf4M@'
tRp27
sS'expName'
p28
g11
sS'session'
p29
S'001'
p30
sS'participant'
p31
V001
p32
ssS'loopsUnfinished'
p33
(lp34
sS'saveWideText'
p35
I00
sS'thisEntry'
p36
(dp37
sS'version'
p38
S''
sS'_paramNamesSoFar'
p39
(lp40
S'randomPaw'
p41
aS'allowableKey'
p42
aS'correctKey'
p43
aS'blank'
p44
aS'pawPatrol1'
p45
aS'pawPatrol2'
p46
aS'pawPatrol3'
p47
aS'pawPatrol4'
p48
asS'entries'
p49
(lp50
(dp51
g29
g30
sg14
I1
sg31
g32
sS'trials_2.thisRepN'
p52
I0
sS'trials_2.thisTrialN'
p53
I0
sg23
g27
sg17
(lp54
F0.56798601150512695
asg42
(lp55
S'2'
aS'1'
aS'3'
aS'4'
asg43
(lp56
S'2'
asg15
(lp57
S'2'
asg41
Vmin2.png
p58
sg28
g11
sS'trials_2.thisIndex'
p59
g24
(g25
(S'i8'
I0
I1
tRp60
(I3
S'<'
NNNI-1
I-1
I0
tbS'\x01\x00\x00\x00\x00\x00\x00\x00'
tRp61
sg44
VallBlank.png
p62
sg21
g22
sg16
I0
sS'trials_2.thisN'
p63
I0
sa(dp64
g29
g30
sg14
I1
sg31
g32
sS'trials_2.thisRepN'
p65
I0
sS'trials_2.thisTrialN'
p66
I1
sg23
g27
sg17
(lp67
F0.48395705223083496
asg42
(lp68
S'2'
aS'1'
aS'3'
aS'4'
asg43
(lp69
S'1'
asg15
(lp70
S'1'
asg41
Vmin1.png
p71
sg28
g11
sS'trials_2.thisIndex'
p72
g24
(g60
S'\x00\x00\x00\x00\x00\x00\x00\x00'
tRp73
sg44
g62
sg21
g22
sg16
I0
sS'trials_2.thisN'
p74
I1
sa(dp75
g29
g30
sg14
I1
sg31
g32
sS'trials_2.thisRepN'
p76
I0
sS'trials_2.thisTrialN'
p77
I2
sg23
g27
sg17
(lp78
F0.30082893371582031
asg42
(lp79
S'2'
aS'1'
aS'3'
aS'4'
asg43
(lp80
S'3'
asg15
(lp81
S'3'
asg41
Vmin3.png
p82
sg28
g11
sS'trials_2.thisIndex'
p83
g24
(g60
S'\x02\x00\x00\x00\x00\x00\x00\x00'
tRp84
sg44
g62
sg21
g22
sg16
I0
sS'trials_2.thisN'
p85
I2
sa(dp86
g29
g30
sg14
I1
sg31
g32
sS'trials_2.thisRepN'
p87
I0
sS'trials_2.thisTrialN'
p88
I3
sg23
g27
sg17
(lp89
F0.32522702217102051
asg42
(lp90
S'2'
aS'1'
aS'3'
aS'4'
asg43
(lp91
S'4'
asg15
(lp92
S'4'
asg41
Vmin4.png
p93
sg28
g11
sS'trials_2.thisIndex'
p94
g24
(g60
S'\x03\x00\x00\x00\x00\x00\x00\x00'
tRp95
sg44
g62
sg21
g22
sg16
I0
sS'trials_2.thisN'
p96
I3
sa(dp97
g29
g30
sg14
I1
sg31
g32
sS'trials_2.thisRepN'
p98
I1
sS'trials_2.thisTrialN'
p99
I0
sg23
g27
sg17
(lp100
F0.4094240665435791
asg42
g68
sg43
g69
sg15
(lp101
S'1'
asg41
g71
sg28
g11
sS'trials_2.thisIndex'
p102
g24
(g60
S'\x00\x00\x00\x00\x00\x00\x00\x00'
tRp103
sg44
g62
sg21
g22
sg16
I0
sS'trials_2.thisN'
p104
I4
sa(dp105
g29
g30
sg14
I1
sg31
g32
sS'trials_2.thisRepN'
p106
I1
sS'trials_2.thisTrialN'
p107
I1
sg23
g27
sg17
(lp108
F0.39007806777954102
asg42
g55
sg43
g56
sg15
(lp109
S'2'
asg41
g58
sg28
g11
sS'trials_2.thisIndex'
p110
g24
(g60
S'\x01\x00\x00\x00\x00\x00\x00\x00'
tRp111
sg44
g62
sg21
g22
sg16
I0
sS'trials_2.thisN'
p112
I5
sa(dp113
g29
g30
sg14
I1
sg31
g32
sS'trials_2.thisRepN'
p114
I1
sS'trials_2.thisTrialN'
p115
I2
sg23
g27
sg17
(lp116
F0.26115202903747559
asg42
g79
sg43
g80
sg15
(lp117
S'3'
asg41
g82
sg28
g11
sS'trials_2.thisIndex'
p118
g24
(g60
S'\x02\x00\x00\x00\x00\x00\x00\x00'
tRp119
sg44
g62
sg21
g22
sg16
I0
sS'trials_2.thisN'
p120
I6
sa(dp121
g29
g30
sg14
I1
sg31
g32
sS'trials_2.thisRepN'
p122
I1
sS'trials_2.thisTrialN'
p123
I3
sg23
g27
sg17
(lp124
F0.26038885116577148
asg42
g90
sg43
g91
sg15
(lp125
S'4'
asg41
g93
sg28
g11
sS'trials_2.thisIndex'
p126
g24
(g60
S'\x03\x00\x00\x00\x00\x00\x00\x00'
tRp127
sg44
g62
sg21
g22
sg16
I0
sS'trials_2.thisN'
p128
I7
sa(dp129
g29
g30
sg14
I1
sg31
g32
sS'trials_2.thisRepN'
p130
I2
sS'trials_2.thisTrialN'
p131
I0
sg23
g27
sg17
(lp132
F0.34371209144592285
asg42
g68
sg43
g69
sg15
(lp133
S'1'
asg41
g71
sg28
g11
sS'trials_2.thisIndex'
p134
g24
(g60
S'\x00\x00\x00\x00\x00\x00\x00\x00'
tRp135
sg44
g62
sg21
g22
sg16
I0
sS'trials_2.thisN'
p136
I8
sa(dp137
g29
g30
sg14
I1
sg31
g32
sS'trials_2.thisRepN'
p138
I2
sS'trials_2.thisTrialN'
p139
I1
sg23
g27
sg17
(lp140
F0.26055598258972168
asg42
g79
sg43
g80
sg15
(lp141
S'3'
asg41
g82
sg28
g11
sS'trials_2.thisIndex'
p142
g24
(g60
S'\x02\x00\x00\x00\x00\x00\x00\x00'
tRp143
sg44
g62
sg21
g22
sg16
I0
sS'trials_2.thisN'
p144
I9
sa(dp145
g29
g30
sg14
I1
sg31
g32
sS'trials_2.thisRepN'
p146
I2
sS'trials_2.thisTrialN'
p147
I2
sg23
g27
sg17
(lp148
F0.21025204658508301
asg42
g55
sg43
g56
sg15
(lp149
S'2'
asg41
g58
sg28
g11
sS'trials_2.thisIndex'
p150
g24
(g60
S'\x01\x00\x00\x00\x00\x00\x00\x00'
tRp151
sg44
g62
sg21
g22
sg16
I0
sS'trials_2.thisN'
p152
I10
sa(dp153
g29
g30
sg14
I1
sg31
g32
sS'trials_2.thisRepN'
p154
I2
sS'trials_2.thisTrialN'
p155
I3
sg23
g27
sg17
(lp156
F0.1615440845489502
asg42
g90
sg43
g91
sg15
(lp157
S'4'
asg41
g93
sg28
g11
sS'trials_2.thisIndex'
p158
g24
(g60
S'\x03\x00\x00\x00\x00\x00\x00\x00'
tRp159
sg44
g62
sg21
g22
sg16
I0
sS'trials_2.thisN'
p160
I11
sa(dp161
g29
g30
sg14
I0
sg31
g32
sS'trials_2.thisRepN'
p162
I3
sS'trials_2.thisTrialN'
p163
I0
sg23
g27
sg17
(lp164
F0.34416580200195312
aF0.67853879928588867
asg42
g79
sg43
g80
sg15
(lp165
S'2'
aS'3'
asg41
g82
sg28
g11
sS'trials_2.thisIndex'
p166
g24
(g60
S'\x02\x00\x00\x00\x00\x00\x00\x00'
tRp167
sg44
g62
sg21
g22
sg16
I0
sS'trials_2.thisN'
p168
I12
sa(dp169
g29
g30
sg14
I1
sg31
g32
sS'trials_2.thisRepN'
p170
I3
sS'trials_2.thisTrialN'
p171
I1
sg23
g27
sg17
(lp172
F0.24632000923156738
asg42
g55
sg43
g56
sg15
(lp173
S'2'
asg41
g58
sg28
g11
sS'trials_2.thisIndex'
p174
g24
(g60
S'\x01\x00\x00\x00\x00\x00\x00\x00'
tRp175
sg44
g62
sg21
g22
sg16
I0
sS'trials_2.thisN'
p176
I13
sa(dp177
g29
g30
sg14
I1
sg31
g32
sS'trials_2.thisRepN'
p178
I3
sS'trials_2.thisTrialN'
p179
I2
sg23
g27
sg17
(lp180
F0.27898001670837402
asg42
g68
sg43
g69
sg15
(lp181
S'1'
asg41
g71
sg28
g11
sS'trials_2.thisIndex'
p182
g24
(g60
S'\x00\x00\x00\x00\x00\x00\x00\x00'
tRp183
sg44
g62
sg21
g22
sg16
I0
sS'trials_2.thisN'
p184
I14
sa(dp185
g29
g30
sg14
I1
sg31
g32
sS'trials_2.thisRepN'
p186
I3
sS'trials_2.thisTrialN'
p187
I3
sg23
g27
sg17
(lp188
F0.32755184173583984
asg42
g90
sg43
g91
sg15
(lp189
S'4'
asg41
g93
sg28
g11
sS'trials_2.thisIndex'
p190
g24
(g60
S'\x03\x00\x00\x00\x00\x00\x00\x00'
tRp191
sg44
g62
sg21
g22
sg16
I0
sS'trials_2.thisN'
p192
I15
sa(dp193
g29
g30
sg14
I1
sg31
g32
sS'trials_2.thisRepN'
p194
I4
sS'trials_2.thisTrialN'
p195
I0
sg23
g27
sg17
(lp196
F0.29399418830871582
asg42
g55
sg43
g56
sg15
(lp197
S'2'
asg41
g58
sg28
g11
sS'trials_2.thisIndex'
p198
g24
(g60
S'\x01\x00\x00\x00\x00\x00\x00\x00'
tRp199
sg44
g62
sg21
g22
sg16
I0
sS'trials_2.thisN'
p200
I16
sa(dp201
g29
g30
sg14
I1
sg31
g32
sS'trials_2.thisRepN'
p202
I4
sS'trials_2.thisTrialN'
p203
I1
sg23
g27
sg17
(lp204
F0.29777097702026367
asg42
g90
sg43
g91
sg15
(lp205
S'4'
asg41
g93
sg28
g11
sS'trials_2.thisIndex'
p206
g24
(g60
S'\x03\x00\x00\x00\x00\x00\x00\x00'
tRp207
sg44
g62
sg21
g22
sg16
I0
sS'trials_2.thisN'
p208
I17
sa(dp209
g29
g30
sg14
I1
sg31
g32
sS'trials_2.thisRepN'
p210
I4
sS'trials_2.thisTrialN'
p211
I2
sg23
g27
sg17
(lp212
F0.32990717887878418
asg42
g68
sg43
g69
sg15
(lp213
S'1'
asg41
g71
sg28
g11
sS'trials_2.thisIndex'
p214
g24
(g60
S'\x00\x00\x00\x00\x00\x00\x00\x00'
tRp215
sg44
g62
sg21
g22
sg16
I0
sS'trials_2.thisN'
p216
I18
sa(dp217
g29
g30
sg14
I1
sg31
g32
sS'trials_2.thisRepN'
p218
I4
sS'trials_2.thisTrialN'
p219
I3
sg23
g27
sg17
(lp220
F0.24546504020690918
asg42
g79
sg43
g80
sg15
(lp221
S'3'
asg41
g82
sg28
g11
sS'trials_2.thisIndex'
p222
g24
(g60
S'\x02\x00\x00\x00\x00\x00\x00\x00'
tRp223
sg44
g62
sg21
g22
sg16
I0
sS'trials_2.thisN'
p224
I19
sa(dp225
g29
g30
sg14
I1
sg31
g32
sS'trials_2.thisRepN'
p226
I5
sS'trials_2.thisTrialN'
p227
I0
sg23
g27
sg17
(lp228
F0.23030996322631836
asg42
g55
sg43
g56
sg15
(lp229
S'2'
asg41
g58
sg28
g11
sS'trials_2.thisIndex'
p230
g24
(g60
S'\x01\x00\x00\x00\x00\x00\x00\x00'
tRp231
sg44
g62
sg21
g22
sg16
I0
sS'trials_2.thisN'
p232
I20
sa(dp233
g29
g30
sg14
I0
sg31
g32
sS'trials_2.thisRepN'
p234
I5
sS'trials_2.thisTrialN'
p235
I1
sg23
g27
sg17
(lp236
F0.18638086318969727
aF0.60369086265563965
asg42
g79
sg43
g80
sg15
(lp237
S'4'
aS'3'
asg41
g82
sg28
g11
sS'trials_2.thisIndex'
p238
g24
(g60
S'\x02\x00\x00\x00\x00\x00\x00\x00'
tRp239
sg44
g62
sg21
g22
sg16
I0
sS'trials_2.thisN'
p240
I21
sa(dp241
g29
g30
sg14
I1
sg31
g32
sS'trials_2.thisRepN'
p242
I5
sS'trials_2.thisTrialN'
p243
I2
sg23
g27
sg17
(lp244
F0.33720302581787109
asg42
g90
sg43
g91
sg15
(lp245
S'4'
asg41
g93
sg28
g11
sS'trials_2.thisIndex'
p246
g24
(g60
S'\x03\x00\x00\x00\x00\x00\x00\x00'
tRp247
sg44
g62
sg21
g22
sg16
I0
sS'trials_2.thisN'
p248
I22
sa(dp249
g29
g30
sg14
I1
sg31
g32
sS'trials_2.thisRepN'
p250
I5
sS'trials_2.thisTrialN'
p251
I3
sg23
g27
sg17
(lp252
F0.39713883399963379
asg42
g68
sg43
g69
sg15
(lp253
S'1'
asg41
g71
sg28
g11
sS'trials_2.thisIndex'
p254
g24
(g60
S'\x00\x00\x00\x00\x00\x00\x00\x00'
tRp255
sg44
g62
sg21
g22
sg16
I0
sS'trials_2.thisN'
p256
I23
sa(dp257
g29
g30
sg14
I1
sg31
g32
sS'trials_2.thisRepN'
p258
I6
sS'trials_2.thisTrialN'
p259
I0
sg23
g27
sg17
(lp260
F0.4537971019744873
asg42
g68
sg43
g69
sg15
(lp261
S'1'
asg41
g71
sg28
g11
sS'trials_2.thisIndex'
p262
g24
(g60
S'\x00\x00\x00\x00\x00\x00\x00\x00'
tRp263
sg44
g62
sg21
g22
sg16
I0
sS'trials_2.thisN'
p264
I24
sa(dp265
g29
g30
sg14
I1
sg31
g32
sS'trials_2.thisRepN'
p266
I6
sS'trials_2.thisTrialN'
p267
I1
sg23
g27
sg17
(lp268
F0.73667716979980469
asg42
g55
sg43
g56
sg15
(lp269
S'2'
asg41
g58
sg28
g11
sS'trials_2.thisIndex'
p270
g24
(g60
S'\x01\x00\x00\x00\x00\x00\x00\x00'
tRp271
sg44
g62
sg21
g22
sg16
I0
sS'trials_2.thisN'
p272
I25
sa(dp273
g29
g30
sg14
I1
sg31
g32
sS'trials_2.thisRepN'
p274
I6
sS'trials_2.thisTrialN'
p275
I2
sg23
g27
sg17
(lp276
F0.2506258487701416
asg42
g79
sg43
g80
sg15
(lp277
S'3'
asg41
g82
sg28
g11
sS'trials_2.thisIndex'
p278
g24
(g60
S'\x02\x00\x00\x00\x00\x00\x00\x00'
tRp279
sg44
g62
sg21
g22
sg16
I0
sS'trials_2.thisN'
p280
I26
sa(dp281
g29
g30
sg14
I1
sg31
g32
sS'trials_2.thisRepN'
p282
I6
sS'trials_2.thisTrialN'
p283
I3
sg23
g27
sg17
(lp284
F0.25306105613708496
asg42
g90
sg43
g91
sg15
(lp285
S'4'
asg41
g93
sg28
g11
sS'trials_2.thisIndex'
p286
g24
(g60
S'\x03\x00\x00\x00\x00\x00\x00\x00'
tRp287
sg44
g62
sg21
g22
sg16
I0
sS'trials_2.thisN'
p288
I27
sa(dp289
g29
g30
sg14
I1
sg31
g32
sS'trials_2.thisRepN'
p290
I7
sS'trials_2.thisTrialN'
p291
I0
sg23
g27
sg17
(lp292
F0.28676700592041016
asg42
g55
sg43
g56
sg15
(lp293
S'2'
asg41
g58
sg28
g11
sS'trials_2.thisIndex'
p294
g24
(g60
S'\x01\x00\x00\x00\x00\x00\x00\x00'
tRp295
sg44
g62
sg21
g22
sg16
I0
sS'trials_2.thisN'
p296
I28
sa(dp297
g29
g30
sg14
I1
sg31
g32
sS'trials_2.thisRepN'
p298
I7
sS'trials_2.thisTrialN'
p299
I1
sg23
g27
sg17
(lp300
F0.30299687385559082
asg42
g90
sg43
g91
sg15
(lp301
S'4'
asg41
g93
sg28
g11
sS'trials_2.thisIndex'
p302
g24
(g60
S'\x03\x00\x00\x00\x00\x00\x00\x00'
tRp303
sg44
g62
sg21
g22
sg16
I0
sS'trials_2.thisN'
p304
I29
sa(dp305
g29
g30
sg14
I1
sg31
g32
sS'trials_2.thisRepN'
p306
I7
sS'trials_2.thisTrialN'
p307
I2
sg23
g27
sg17
(lp308
F0.46971893310546875
asg42
g79
sg43
g80
sg15
(lp309
S'3'
asg41
g82
sg28
g11
sS'trials_2.thisIndex'
p310
g24
(g60
S'\x02\x00\x00\x00\x00\x00\x00\x00'
tRp311
sg44
g62
sg21
g22
sg16
I0
sS'trials_2.thisN'
p312
I30
sa(dp313
g29
g30
sg14
I1
sg31
g32
sS'trials_2.thisRepN'
p314
I7
sS'trials_2.thisTrialN'
p315
I3
sg23
g27
sg17
(lp316
F0.40303397178649902
asg42
g68
sg43
g69
sg15
(lp317
S'1'
asg41
g71
sg28
g11
sS'trials_2.thisIndex'
p318
g24
(g60
S'\x00\x00\x00\x00\x00\x00\x00\x00'
tRp319
sg44
g62
sg21
g22
sg16
I0
sS'trials_2.thisN'
p320
I31
sa(dp321
g29
g30
sg14
I1
sg31
g32
sS'trials_2.thisRepN'
p322
I8
sS'trials_2.thisTrialN'
p323
I0
sg23
g27
sg17
(lp324
F0.42080092430114746
asg42
g68
sg43
g69
sg15
(lp325
S'1'
asg41
g71
sg28
g11
sS'trials_2.thisIndex'
p326
g24
(g60
S'\x00\x00\x00\x00\x00\x00\x00\x00'
tRp327
sg44
g62
sg21
g22
sg16
I0
sS'trials_2.thisN'
p328
I32
sa(dp329
g29
g30
sg14
I1
sg31
g32
sS'trials_2.thisRepN'
p330
I8
sS'trials_2.thisTrialN'
p331
I1
sg23
g27
sg17
(lp332
F0.25237107276916504
asg42
g55
sg43
g56
sg15
(lp333
S'2'
asg41
g58
sg28
g11
sS'trials_2.thisIndex'
p334
g24
(g60
S'\x01\x00\x00\x00\x00\x00\x00\x00'
tRp335
sg44
g62
sg21
g22
sg16
I0
sS'trials_2.thisN'
p336
I33
sa(dp337
g29
g30
sg14
I1
sg31
g32
sS'trials_2.thisRepN'
p338
I8
sS'trials_2.thisTrialN'
p339
I2
sg23
g27
sg17
(lp340
F0.21985101699829102
asg42
g79
sg43
g80
sg15
(lp341
S'3'
asg41
g82
sg28
g11
sS'trials_2.thisIndex'
p342
g24
(g60
S'\x02\x00\x00\x00\x00\x00\x00\x00'
tRp343
sg44
g62
sg21
g22
sg16
I0
sS'trials_2.thisN'
p344
I34
sa(dp345
g29
g30
sg14
I1
sg31
g32
sS'trials_2.thisRepN'
p346
I8
sS'trials_2.thisTrialN'
p347
I3
sg23
g27
sg17
(lp348
F0.23794889450073242
asg42
g90
sg43
g91
sg15
(lp349
S'4'
asg41
g93
sg28
g11
sS'trials_2.thisIndex'
p350
g24
(g60
S'\x03\x00\x00\x00\x00\x00\x00\x00'
tRp351
sg44
g62
sg21
g22
sg16
I0
sS'trials_2.thisN'
p352
I35
sa(dp353
g29
g30
sg14
I1
sg31
g32
sS'trials_2.thisRepN'
p354
I9
sS'trials_2.thisTrialN'
p355
I0
sg23
g27
sg17
(lp356
F0.52247095108032227
asg42
g79
sg43
g80
sg15
(lp357
S'3'
asg41
g82
sg28
g11
sS'trials_2.thisIndex'
p358
g24
(g60
S'\x02\x00\x00\x00\x00\x00\x00\x00'
tRp359
sg44
g62
sg21
g22
sg16
I0
sS'trials_2.thisN'
p360
I36
sa(dp361
g29
g30
sg14
I1
sg31
g32
sS'trials_2.thisRepN'
p362
I9
sS'trials_2.thisTrialN'
p363
I1
sg23
g27
sg17
(lp364
F0.33970212936401367
asg42
g90
sg43
g91
sg15
(lp365
S'4'
asg41
g93
sg28
g11
sS'trials_2.thisIndex'
p366
g24
(g60
S'\x03\x00\x00\x00\x00\x00\x00\x00'
tRp367
sg44
g62
sg21
g22
sg16
I0
sS'trials_2.thisN'
p368
I37
sa(dp369
g29
g30
sg14
I1
sg31
g32
sS'trials_2.thisRepN'
p370
I9
sS'trials_2.thisTrialN'
p371
I2
sg23
g27
sg17
(lp372
F0.30239176750183105
asg42
g55
sg43
g56
sg15
(lp373
S'2'
asg41
g58
sg28
g11
sS'trials_2.thisIndex'
p374
g24
(g60
S'\x01\x00\x00\x00\x00\x00\x00\x00'
tRp375
sg44
g62
sg21
g22
sg16
I0
sS'trials_2.thisN'
p376
I38
sa(dp377
g29
g30
sg14
I0
sg31
g32
sS'trials_2.thisRepN'
p378
I9
sS'trials_2.thisTrialN'
p379
I3
sg23
g27
sg17
(lp380
F0.16869902610778809
aF0.46976208686828613
asg42
g68
sg43
g69
sg15
(lp381
S'3'
aS'1'
asg41
g71
sg28
g11
sS'trials_2.thisIndex'
p382
g24
(g60
S'\x00\x00\x00\x00\x00\x00\x00\x00'
tRp383
sg44
g62
sg21
g22
sg16
I0
sS'trials_2.thisN'
p384
I39
sa(dp385
g29
g30
sg14
I1
sg31
g32
sS'trials_2.thisRepN'
p386
I10
sS'trials_2.thisTrialN'
p387
I0
sg23
g27
sg17
(lp388
F0.33580493927001953
asg42
g90
sg43
g91
sg15
(lp389
S'4'
asg41
g93
sg28
g11
sS'trials_2.thisIndex'
p390
g24
(g60
S'\x03\x00\x00\x00\x00\x00\x00\x00'
tRp391
sg44
g62
sg21
g22
sg16
I0
sS'trials_2.thisN'
p392
I40
sa(dp393
g29
g30
sg14
I1
sg31
g32
sS'trials_2.thisRepN'
p394
I10
sS'trials_2.thisTrialN'
p395
I1
sg23
g27
sg17
(lp396
F0.2710719108581543
asg42
g55
sg43
g56
sg15
(lp397
S'2'
asg41
g58
sg28
g11
sS'trials_2.thisIndex'
p398
g24
(g60
S'\x01\x00\x00\x00\x00\x00\x00\x00'
tRp399
sg44
g62
sg21
g22
sg16
I0
sS'trials_2.thisN'
p400
I41
sa(dp401
g29
g30
sg14
I1
sg31
g32
sS'trials_2.thisRepN'
p402
I10
sS'trials_2.thisTrialN'
p403
I2
sg23
g27
sg17
(lp404
F0.28587889671325684
asg42
g79
sg43
g80
sg15
(lp405
S'3'
asg41
g82
sg28
g11
sS'trials_2.thisIndex'
p406
g24
(g60
S'\x02\x00\x00\x00\x00\x00\x00\x00'
tRp407
sg44
g62
sg21
g22
sg16
I0
sS'trials_2.thisN'
p408
I42
sa(dp409
g29
g30
sg14
I0
sg31
g32
sS'trials_2.thisRepN'
p410
I10
sS'trials_2.thisTrialN'
p411
I3
sg23
g27
sg17
(lp412
F0.18689584732055664
aF0.54240989685058594
aF0.79279184341430664
asg42
g68
sg43
g69
sg15
(lp413
S'4'
aS'2'
aS'1'
asg41
g71
sg28
g11
sS'trials_2.thisIndex'
p414
g24
(g60
S'\x00\x00\x00\x00\x00\x00\x00\x00'
tRp415
sg44
g62
sg21
g22
sg16
I0
sS'trials_2.thisN'
p416
I43
sa(dp417
g29
g30
sg14
I1
sg31
g32
sS'trials_2.thisRepN'
p418
I11
sS'trials_2.thisTrialN'
p419
I0
sg23
g27
sg17
(lp420
F0.36008191108703613
asg42
g90
sg43
g91
sg15
(lp421
S'4'
asg41
g93
sg28
g11
sS'trials_2.thisIndex'
p422
g24
(g60
S'\x03\x00\x00\x00\x00\x00\x00\x00'
tRp423
sg44
g62
sg21
g22
sg16
I0
sS'trials_2.thisN'
p424
I44
sa(dp425
g29
g30
sg14
I0
sg31
g32
sS'trials_2.thisRepN'
p426
I11
sS'trials_2.thisTrialN'
p427
I1
sg23
g27
sg17
(lp428
F0.29336118698120117
aF0.59333205223083496
asg42
g68
sg43
g69
sg15
(lp429
S'2'
aS'1'
asg41
g71
sg28
g11
sS'trials_2.thisIndex'
p430
g24
(g60
S'\x00\x00\x00\x00\x00\x00\x00\x00'
tRp431
sg44
g62
sg21
g22
sg16
I0
sS'trials_2.thisN'
p432
I45
sa(dp433
g29
g30
sg14
I1
sg31
g32
sS'trials_2.thisRepN'
p434
I11
sS'trials_2.thisTrialN'
p435
I2
sg23
g27
sg17
(lp436
F0.26000785827636719
asg42
g79
sg43
g80
sg15
(lp437
S'3'
asg41
g82
sg28
g11
sS'trials_2.thisIndex'
p438
g24
(g60
S'\x02\x00\x00\x00\x00\x00\x00\x00'
tRp439
sg44
g62
sg21
g22
sg16
I0
sS'trials_2.thisN'
p440
I46
sa(dp441
g29
g30
sg14
I1
sg31
g32
sS'trials_2.thisRepN'
p442
I11
sS'trials_2.thisTrialN'
p443
I3
sg23
g27
sg17
(lp444
F0.2104649543762207
asg42
g55
sg43
g56
sg15
(lp445
S'2'
asg41
g58
sg28
g11
sS'trials_2.thisIndex'
p446
g24
(g60
S'\x01\x00\x00\x00\x00\x00\x00\x00'
tRp447
sg44
g62
sg21
g22
sg16
I0
sS'trials_2.thisN'
p448
I47
sa(dp449
g29
g30
sg14
I1
sg31
g32
sS'trials_2.thisRepN'
p450
I12
sS'trials_2.thisTrialN'
p451
I0
sg23
g27
sg17
(lp452
F0.21030187606811523
asg42
g90
sg43
g91
sg15
(lp453
S'4'
asg41
g93
sg28
g11
sS'trials_2.thisIndex'
p454
g24
(g60
S'\x03\x00\x00\x00\x00\x00\x00\x00'
tRp455
sg44
g62
sg21
g22
sg16
I0
sS'trials_2.thisN'
p456
I48
sa(dp457
g29
g30
sg14
I1
sg31
g32
sS'trials_2.thisRepN'
p458
I12
sS'trials_2.thisTrialN'
p459
I1
sg23
g27
sg17
(lp460
F0.31099700927734375
asg42
g68
sg43
g69
sg15
(lp461
S'1'
asg41
g71
sg28
g11
sS'trials_2.thisIndex'
p462
g24
(g60
S'\x00\x00\x00\x00\x00\x00\x00\x00'
tRp463
sg44
g62
sg21
g22
sg16
I0
sS'trials_2.thisN'
p464
I49
sa(dp465
g29
g30
sg14
I1
sg31
g32
sS'trials_2.thisRepN'
p466
I12
sS'trials_2.thisTrialN'
p467
I2
sg23
g27
sg17
(lp468
F0.27918791770935059
asg42
g79
sg43
g80
sg15
(lp469
S'3'
asg41
g82
sg28
g11
sS'trials_2.thisIndex'
p470
g24
(g60
S'\x02\x00\x00\x00\x00\x00\x00\x00'
tRp471
sg44
g62
sg21
g22
sg16
I0
sS'trials_2.thisN'
p472
I50
sa(dp473
g29
g30
sg14
I1
sg31
g32
sS'trials_2.thisRepN'
p474
I12
sS'trials_2.thisTrialN'
p475
I3
sg23
g27
sg17
(lp476
F0.19405889511108398
asg42
g55
sg43
g56
sg15
(lp477
S'2'
asg41
g58
sg28
g11
sS'trials_2.thisIndex'
p478
g24
(g60
S'\x01\x00\x00\x00\x00\x00\x00\x00'
tRp479
sg44
g62
sg21
g22
sg16
I0
sS'trials_2.thisN'
p480
I51
sa(dp481
g29
g30
sg14
I0
sg31
g32
sS'trials_2.thisRepN'
p482
I13
sS'trials_2.thisTrialN'
p483
I0
sg23
g27
sg17
(lp484
F0.2284390926361084
aF0.56209611892700195
asg42
g79
sg43
g80
sg15
(lp485
S'4'
aS'3'
asg41
g82
sg28
g11
sS'trials_2.thisIndex'
p486
g24
(g60
S'\x02\x00\x00\x00\x00\x00\x00\x00'
tRp487
sg44
g62
sg21
g22
sg16
I0
sS'trials_2.thisN'
p488
I52
sa(dp489
g29
g30
sg14
I1
sg31
g32
sS'trials_2.thisRepN'
p490
I13
sS'trials_2.thisTrialN'
p491
I1
sg23
g27
sg17
(lp492
F0.52660799026489258
asg42
g55
sg43
g56
sg15
(lp493
S'2'
asg41
g58
sg28
g11
sS'trials_2.thisIndex'
p494
g24
(g60
S'\x01\x00\x00\x00\x00\x00\x00\x00'
tRp495
sg44
g62
sg21
g22
sg16
I0
sS'trials_2.thisN'
p496
I53
sa(dp497
g29
g30
sg14
I1
sg31
g32
sS'trials_2.thisRepN'
p498
I13
sS'trials_2.thisTrialN'
p499
I2
sg23
g27
sg17
(lp500
F0.36176800727844238
asg42
g68
sg43
g69
sg15
(lp501
S'1'
asg41
g71
sg28
g11
sS'trials_2.thisIndex'
p502
g24
(g60
S'\x00\x00\x00\x00\x00\x00\x00\x00'
tRp503
sg44
g62
sg21
g22
sg16
I0
sS'trials_2.thisN'
p504
I54
sa(dp505
g29
g30
sg14
I1
sg31
g32
sS'trials_2.thisRepN'
p506
I13
sS'trials_2.thisTrialN'
p507
I3
sg23
g27
sg17
(lp508
F0.32909202575683594
asg42
g90
sg43
g91
sg15
(lp509
S'4'
asg41
g93
sg28
g11
sS'trials_2.thisIndex'
p510
g24
(g60
S'\x03\x00\x00\x00\x00\x00\x00\x00'
tRp511
sg44
g62
sg21
g22
sg16
I0
sS'trials_2.thisN'
p512
I55
sa(dp513
g29
g30
sg14
I1
sg31
g32
sS'trials_2.thisRepN'
p514
I14
sS'trials_2.thisTrialN'
p515
I0
sg23
g27
sg17
(lp516
F0.28018903732299805
asg42
g55
sg43
g56
sg15
(lp517
S'2'
asg41
g58
sg28
g11
sS'trials_2.thisIndex'
p518
g24
(g60
S'\x01\x00\x00\x00\x00\x00\x00\x00'
tRp519
sg44
g62
sg21
g22
sg16
I0
sS'trials_2.thisN'
p520
I56
sa(dp521
g29
g30
sg14
I1
sg31
g32
sS'trials_2.thisRepN'
p522
I14
sS'trials_2.thisTrialN'
p523
I1
sg23
g27
sg17
(lp524
F0.32936286926269531
asg42
g90
sg43
g91
sg15
(lp525
S'4'
asg41
g93
sg28
g11
sS'trials_2.thisIndex'
p526
g24
(g60
S'\x03\x00\x00\x00\x00\x00\x00\x00'
tRp527
sg44
g62
sg21
g22
sg16
I0
sS'trials_2.thisN'
p528
I57
sa(dp529
g29
g30
sg14
I1
sg31
g32
sS'trials_2.thisRepN'
p530
I14
sS'trials_2.thisTrialN'
p531
I2
sg23
g27
sg17
(lp532
F0.40197300910949707
asg42
g79
sg43
g80
sg15
(lp533
S'3'
asg41
g82
sg28
g11
sS'trials_2.thisIndex'
p534
g24
(g60
S'\x02\x00\x00\x00\x00\x00\x00\x00'
tRp535
sg44
g62
sg21
g22
sg16
I0
sS'trials_2.thisN'
p536
I58
sa(dp537
g29
g30
sg14
I0
sg31
g32
sS'trials_2.thisRepN'
p538
I14
sS'trials_2.thisTrialN'
p539
I3
sg23
g27
sg17
(lp540
F0.1864168643951416
aF0.47009086608886719
asg42
g68
sg43
g69
sg15
(lp541
S'2'
aS'1'
asg41
g71
sg28
g11
sS'trials_2.thisIndex'
p542
g24
(g60
S'\x00\x00\x00\x00\x00\x00\x00\x00'
tRp543
sg44
g62
sg21
g22
sg16
I0
sS'trials_2.thisN'
p544
I59
sa(dp545
g29
g30
sg14
I0
sg31
g32
sS'trials_2.thisRepN'
p546
I15
sS'trials_2.thisTrialN'
p547
I0
sg23
g27
sg17
(lp548
F0.24735593795776367
aF0.58078694343566895
asg42
g68
sg43
g69
sg15
(lp549
S'2'
aS'1'
asg41
g71
sg28
g11
sS'trials_2.thisIndex'
p550
g24
(g60
S'\x00\x00\x00\x00\x00\x00\x00\x00'
tRp551
sg44
g62
sg21
g22
sg16
I0
sS'trials_2.thisN'
p552
I60
sa(dp553
g29
g30
sg14
I1
sg31
g32
sS'trials_2.thisRepN'
p554
I15
sS'trials_2.thisTrialN'
p555
I1
sg23
g27
sg17
(lp556
F0.43638396263122559
asg42
g90
sg43
g91
sg15
(lp557
S'4'
asg41
g93
sg28
g11
sS'trials_2.thisIndex'
p558
g24
(g60
S'\x03\x00\x00\x00\x00\x00\x00\x00'
tRp559
sg44
g62
sg21
g22
sg16
I0
sS'trials_2.thisN'
p560
I61
sa(dp561
g29
g30
sg14
I1
sg31
g32
sS'trials_2.thisRepN'
p562
I15
sS'trials_2.thisTrialN'
p563
I2
sg23
g27
sg17
(lp564
F0.27017402648925781
asg42
g55
sg43
g56
sg15
(lp565
S'2'
asg41
g58
sg28
g11
sS'trials_2.thisIndex'
p566
g24
(g60
S'\x01\x00\x00\x00\x00\x00\x00\x00'
tRp567
sg44
g62
sg21
g22
sg16
I0
sS'trials_2.thisN'
p568
I62
sa(dp569
g29
g30
sg14
I1
sg31
g32
sS'trials_2.thisRepN'
p570
I15
sS'trials_2.thisTrialN'
p571
I3
sg23
g27
sg17
(lp572
F0.26920795440673828
asg42
g79
sg43
g80
sg15
(lp573
S'3'
asg41
g82
sg28
g11
sS'trials_2.thisIndex'
p574
g24
(g60
S'\x02\x00\x00\x00\x00\x00\x00\x00'
tRp575
sg44
g62
sg21
g22
sg16
I0
sS'trials_2.thisN'
p576
I63
sa(dp577
g29
g30
sg14
I1
sg31
g32
sS'trials_2.thisRepN'
p578
I16
sS'trials_2.thisTrialN'
p579
I0
sg23
g27
sg17
(lp580
F0.36934185028076172
asg42
g68
sg43
g69
sg15
(lp581
S'1'
asg41
g71
sg28
g11
sS'trials_2.thisIndex'
p582
g24
(g60
S'\x00\x00\x00\x00\x00\x00\x00\x00'
tRp583
sg44
g62
sg21
g22
sg16
I0
sS'trials_2.thisN'
p584
I64
sa(dp585
g29
g30
sg14
I1
sg31
g32
sS'trials_2.thisRepN'
p586
I16
sS'trials_2.thisTrialN'
p587
I1
sg23
g27
sg17
(lp588
F0.41763901710510254
asg42
g79
sg43
g80
sg15
(lp589
S'3'
asg41
g82
sg28
g11
sS'trials_2.thisIndex'
p590
g24
(g60
S'\x02\x00\x00\x00\x00\x00\x00\x00'
tRp591
sg44
g62
sg21
g22
sg16
I0
sS'trials_2.thisN'
p592
I65
sa(dp593
g29
g30
sg14
I1
sg31
g32
sS'trials_2.thisRepN'
p594
I16
sS'trials_2.thisTrialN'
p595
I2
sg23
g27
sg17
(lp596
F0.32057714462280273
asg42
g90
sg43
g91
sg15
(lp597
S'4'
asg41
g93
sg28
g11
sS'trials_2.thisIndex'
p598
g24
(g60
S'\x03\x00\x00\x00\x00\x00\x00\x00'
tRp599
sg44
g62
sg21
g22
sg16
I0
sS'trials_2.thisN'
p600
I66
sa(dp601
g29
g30
sg14
I1
sg31
g32
sS'trials_2.thisRepN'
p602
I16
sS'trials_2.thisTrialN'
p603
I3
sg23
g27
sg17
(lp604
F0.30230593681335449
asg42
g55
sg43
g56
sg15
(lp605
S'2'
asg41
g58
sg28
g11
sS'trials_2.thisIndex'
p606
g24
(g60
S'\x01\x00\x00\x00\x00\x00\x00\x00'
tRp607
sg44
g62
sg21
g22
sg16
I0
sS'trials_2.thisN'
p608
I67
sa(dp609
g29
g30
sg14
I1
sg31
g32
sS'trials_2.thisRepN'
p610
I17
sS'trials_2.thisTrialN'
p611
I0
sg23
g27
sg17
(lp612
F0.33550500869750977
asg42
g68
sg43
g69
sg15
(lp613
S'1'
asg41
g71
sg28
g11
sS'trials_2.thisIndex'
p614
g24
(g60
S'\x00\x00\x00\x00\x00\x00\x00\x00'
tRp615
sg44
g62
sg21
g22
sg16
I0
sS'trials_2.thisN'
p616
I68
sa(dp617
g29
g30
sg14
I1
sg31
g32
sS'trials_2.thisRepN'
p618
I17
sS'trials_2.thisTrialN'
p619
I1
sg23
g27
sg17
(lp620
F0.25318002700805664
asg42
g79
sg43
g80
sg15
(lp621
S'3'
asg41
g82
sg28
g11
sS'trials_2.thisIndex'
p622
g24
(g60
S'\x02\x00\x00\x00\x00\x00\x00\x00'
tRp623
sg44
g62
sg21
g22
sg16
I0
sS'trials_2.thisN'
p624
I69
sa(dp625
g29
g30
sg14
I1
sg31
g32
sS'trials_2.thisRepN'
p626
I17
sS'trials_2.thisTrialN'
p627
I2
sg23
g27
sg17
(lp628
F0.2536931037902832
asg42
g55
sg43
g56
sg15
(lp629
S'2'
asg41
g58
sg28
g11
sS'trials_2.thisIndex'
p630
g24
(g60
S'\x01\x00\x00\x00\x00\x00\x00\x00'
tRp631
sg44
g62
sg21
g22
sg16
I0
sS'trials_2.thisN'
p632
I70
sa(dp633
g29
g30
sg14
I1
sg31
g32
sS'trials_2.thisRepN'
p634
I17
sS'trials_2.thisTrialN'
p635
I3
sg23
g27
sg17
(lp636
F0.254608154296875
asg42
g90
sg43
g91
sg15
(lp637
S'4'
asg41
g93
sg28
g11
sS'trials_2.thisIndex'
p638
g24
(g60
S'\x03\x00\x00\x00\x00\x00\x00\x00'
tRp639
sg44
g62
sg21
g22
sg16
I0
sS'trials_2.thisN'
p640
I71
sa(dp641
g29
g30
sg14
I1
sg31
g32
sS'trials_2.thisRepN'
p642
I18
sS'trials_2.thisTrialN'
p643
I0
sg23
g27
sg17
(lp644
F0.32024097442626953
asg42
g55
sg43
g56
sg15
(lp645
S'2'
asg41
g58
sg28
g11
sS'trials_2.thisIndex'
p646
g24
(g60
S'\x01\x00\x00\x00\x00\x00\x00\x00'
tRp647
sg44
g62
sg21
g22
sg16
I0
sS'trials_2.thisN'
p648
I72
sa(dp649
g29
g30
sg14
I1
sg31
g32
sS'trials_2.thisRepN'
p650
I18
sS'trials_2.thisTrialN'
p651
I1
sg23
g27
sg17
(lp652
F0.35474085807800293
asg42
g68
sg43
g69
sg15
(lp653
S'1'
asg41
g71
sg28
g11
sS'trials_2.thisIndex'
p654
g24
(g60
S'\x00\x00\x00\x00\x00\x00\x00\x00'
tRp655
sg44
g62
sg21
g22
sg16
I0
sS'trials_2.thisN'
p656
I73
sa(dp657
g29
g30
sg14
I1
sg31
g32
sS'trials_2.thisRepN'
p658
I18
sS'trials_2.thisTrialN'
p659
I2
sg23
g27
sg17
(lp660
F0.32201910018920898
asg42
g90
sg43
g91
sg15
(lp661
S'4'
asg41
g93
sg28
g11
sS'trials_2.thisIndex'
p662
g24
(g60
S'\x03\x00\x00\x00\x00\x00\x00\x00'
tRp663
sg44
g62
sg21
g22
sg16
I0
sS'trials_2.thisN'
p664
I74
sa(dp665
g29
g30
sg14
I1
sg31
g32
sS'trials_2.thisRepN'
p666
I18
sS'trials_2.thisTrialN'
p667
I3
sg23
g27
sg17
(lp668
F0.38837981224060059
asg42
g79
sg43
g80
sg15
(lp669
S'3'
asg41
g82
sg28
g11
sS'trials_2.thisIndex'
p670
g24
(g60
S'\x02\x00\x00\x00\x00\x00\x00\x00'
tRp671
sg44
g62
sg21
g22
sg16
I0
sS'trials_2.thisN'
p672
I75
sa(dp673
g29
g30
sg14
I1
sg31
g32
sS'trials_2.thisRepN'
p674
I19
sS'trials_2.thisTrialN'
p675
I0
sg23
g27
sg17
(lp676
F0.42255210876464844
asg42
g79
sg43
g80
sg15
(lp677
S'3'
asg41
g82
sg28
g11
sS'trials_2.thisIndex'
p678
g24
(g60
S'\x02\x00\x00\x00\x00\x00\x00\x00'
tRp679
sg44
g62
sg21
g22
sg16
I0
sS'trials_2.thisN'
p680
I76
sa(dp681
g29
g30
sg14
I1
sg31
g32
sS'trials_2.thisRepN'
p682
I19
sS'trials_2.thisTrialN'
p683
I1
sg23
g27
sg17
(lp684
F0.35703897476196289
asg42
g68
sg43
g69
sg15
(lp685
S'1'
asg41
g71
sg28
g11
sS'trials_2.thisIndex'
p686
g24
(g60
S'\x00\x00\x00\x00\x00\x00\x00\x00'
tRp687
sg44
g62
sg21
g22
sg16
I0
sS'trials_2.thisN'
p688
I77
sa(dp689
g29
g30
sg14
I1
sg31
g32
sS'trials_2.thisRepN'
p690
I19
sS'trials_2.thisTrialN'
p691
I2
sg23
g27
sg17
(lp692
F0.4023590087890625
asg42
g55
sg43
g56
sg15
(lp693
S'2'
asg41
g58
sg28
g11
sS'trials_2.thisIndex'
p694
g24
(g60
S'\x01\x00\x00\x00\x00\x00\x00\x00'
tRp695
sg44
g62
sg21
g22
sg16
I0
sS'trials_2.thisN'
p696
I78
sa(dp697
g29
g30
sg14
I1
sg31
g32
sS'trials_2.thisRepN'
p698
I19
sS'trials_2.thisTrialN'
p699
I3
sg23
g27
sg17
(lp700
F0.2859649658203125
asg42
g90
sg43
g91
sg15
(lp701
S'4'
asg41
g93
sg28
g11
sS'trials_2.thisIndex'
p702
g24
(g60
S'\x03\x00\x00\x00\x00\x00\x00\x00'
tRp703
sg44
g62
sg21
g22
sg16
I0
sS'trials_2.thisN'
p704
I79
sa(dp705
g29
g30
sg14
I1
sg31
g32
sS'trials_2.thisRepN'
p706
I20
sS'trials_2.thisTrialN'
p707
I0
sg23
g27
sg17
(lp708
F0.3527829647064209
asg42
g90
sg43
g91
sg15
(lp709
S'4'
asg41
g93
sg28
g11
sS'trials_2.thisIndex'
p710
g24
(g60
S'\x03\x00\x00\x00\x00\x00\x00\x00'
tRp711
sg44
g62
sg21
g22
sg16
I0
sS'trials_2.thisN'
p712
I80
sa(dp713
g29
g30
sg14
I1
sg31
g32
sS'trials_2.thisRepN'
p714
I20
sS'trials_2.thisTrialN'
p715
I1
sg23
g27
sg17
(lp716
F0.3186650276184082
asg42
g79
sg43
g80
sg15
(lp717
S'3'
asg41
g82
sg28
g11
sS'trials_2.thisIndex'
p718
g24
(g60
S'\x02\x00\x00\x00\x00\x00\x00\x00'
tRp719
sg44
g62
sg21
g22
sg16
I0
sS'trials_2.thisN'
p720
I81
sa(dp721
g29
g30
sg14
I1
sg31
g32
sS'trials_2.thisRepN'
p722
I20
sS'trials_2.thisTrialN'
p723
I2
sg23
g27
sg17
(lp724
F0.34195184707641602
asg42
g55
sg43
g56
sg15
(lp725
S'2'
asg41
g58
sg28
g11
sS'trials_2.thisIndex'
p726
g24
(g60
S'\x01\x00\x00\x00\x00\x00\x00\x00'
tRp727
sg44
g62
sg21
g22
sg16
I0
sS'trials_2.thisN'
p728
I82
sa(dp729
g29
g30
sg14
I1
sg31
g32
sS'trials_2.thisRepN'
p730
I20
sS'trials_2.thisTrialN'
p731
I3
sg23
g27
sg17
(lp732
F0.27618503570556641
asg42
g68
sg43
g69
sg15
(lp733
S'1'
asg41
g71
sg28
g11
sS'trials_2.thisIndex'
p734
g24
(g60
S'\x00\x00\x00\x00\x00\x00\x00\x00'
tRp735
sg44
g62
sg21
g22
sg16
I0
sS'trials_2.thisN'
p736
I83
sa(dp737
g29
g30
sg14
I1
sg31
g32
sS'trials_2.thisRepN'
p738
I21
sS'trials_2.thisTrialN'
p739
I0
sg23
g27
sg17
(lp740
F0.24268412590026855
asg42
g79
sg43
g80
sg15
(lp741
S'3'
asg41
g82
sg28
g11
sS'trials_2.thisIndex'
p742
g24
(g60
S'\x02\x00\x00\x00\x00\x00\x00\x00'
tRp743
sg44
g62
sg21
g22
sg16
I0
sS'trials_2.thisN'
p744
I84
sa(dp745
g29
g30
sg14
I0
sg31
g32
sS'trials_2.thisRepN'
p746
I21
sS'trials_2.thisTrialN'
p747
I1
sg23
g27
sg17
(lp748
F0.26022195816040039
aF0.57684898376464844
asg42
g68
sg43
g69
sg15
(lp749
S'2'
aS'1'
asg41
g71
sg28
g11
sS'trials_2.thisIndex'
p750
g24
(g60
S'\x00\x00\x00\x00\x00\x00\x00\x00'
tRp751
sg44
g62
sg21
g22
sg16
I0
sS'trials_2.thisN'
p752
I85
sa(dp753
g29
g30
sg14
I0
sg31
g32
sS'trials_2.thisRepN'
p754
I21
sS'trials_2.thisTrialN'
p755
I2
sg23
g27
sg17
(lp756
F0.17748594284057617
aF0.54302692413330078
asg42
g55
sg43
g56
sg15
(lp757
S'4'
aS'2'
asg41
g58
sg28
g11
sS'trials_2.thisIndex'
p758
g24
(g60
S'\x01\x00\x00\x00\x00\x00\x00\x00'
tRp759
sg44
g62
sg21
g22
sg16
I0
sS'trials_2.thisN'
p760
I86
sa(dp761
g29
g30
sg14
I1
sg31
g32
sS'trials_2.thisRepN'
p762
I21
sS'trials_2.thisTrialN'
p763
I3
sg23
g27
sg17
(lp764
F0.27794718742370605
asg42
g90
sg43
g91
sg15
(lp765
S'4'
asg41
g93
sg28
g11
sS'trials_2.thisIndex'
p766
g24
(g60
S'\x03\x00\x00\x00\x00\x00\x00\x00'
tRp767
sg44
g62
sg21
g22
sg16
I0
sS'trials_2.thisN'
p768
I87
sa(dp769
g29
g30
sg14
I1
sg31
g32
sS'trials_2.thisRepN'
p770
I22
sS'trials_2.thisTrialN'
p771
I0
sg23
g27
sg17
(lp772
F0.36205291748046875
asg42
g68
sg43
g69
sg15
(lp773
S'1'
asg41
g71
sg28
g11
sS'trials_2.thisIndex'
p774
g24
(g60
S'\x00\x00\x00\x00\x00\x00\x00\x00'
tRp775
sg44
g62
sg21
g22
sg16
I0
sS'trials_2.thisN'
p776
I88
sa(dp777
g29
g30
sg14
I1
sg31
g32
sS'trials_2.thisRepN'
p778
I22
sS'trials_2.thisTrialN'
p779
I1
sg23
g27
sg17
(lp780
F0.26027393341064453
asg42
g79
sg43
g80
sg15
(lp781
S'3'
asg41
g82
sg28
g11
sS'trials_2.thisIndex'
p782
g24
(g60
S'\x02\x00\x00\x00\x00\x00\x00\x00'
tRp783
sg44
g62
sg21
g22
sg16
I0
sS'trials_2.thisN'
p784
I89
sa(dp785
g29
g30
sg14
I1
sg31
g32
sS'trials_2.thisRepN'
p786
I22
sS'trials_2.thisTrialN'
p787
I2
sg23
g27
sg17
(lp788
F0.32854890823364258
asg42
g90
sg43
g91
sg15
(lp789
S'4'
asg41
g93
sg28
g11
sS'trials_2.thisIndex'
p790
g24
(g60
S'\x03\x00\x00\x00\x00\x00\x00\x00'
tRp791
sg44
g62
sg21
g22
sg16
I0
sS'trials_2.thisN'
p792
I90
sa(dp793
g29
g30
sg14
I1
sg31
g32
sS'trials_2.thisRepN'
p794
I22
sS'trials_2.thisTrialN'
p795
I3
sg23
g27
sg17
(lp796
F0.24417495727539062
asg42
g55
sg43
g56
sg15
(lp797
S'2'
asg41
g58
sg28
g11
sS'trials_2.thisIndex'
p798
g24
(g60
S'\x01\x00\x00\x00\x00\x00\x00\x00'
tRp799
sg44
g62
sg21
g22
sg16
I0
sS'trials_2.thisN'
p800
I91
sa(dp801
g29
g30
sg14
I0
sg31
g32
sS'trials_2.thisRepN'
p802
I23
sS'trials_2.thisTrialN'
p803
I0
sg23
g27
sg17
(lp804
F0.39612007141113281
aF0.77942609786987305
asg42
g55
sg43
g56
sg15
(lp805
S'1'
aS'2'
asg41
g58
sg28
g11
sS'trials_2.thisIndex'
p806
g24
(g60
S'\x01\x00\x00\x00\x00\x00\x00\x00'
tRp807
sg44
g62
sg21
g22
sg16
I0
sS'trials_2.thisN'
p808
I92
sa(dp809
g29
g30
sg14
I1
sg31
g32
sS'trials_2.thisRepN'
p810
I23
sS'trials_2.thisTrialN'
p811
I1
sg23
g27
sg17
(lp812
F0.39587712287902832
asg42
g90
sg43
g91
sg15
(lp813
S'4'
asg41
g93
sg28
g11
sS'trials_2.thisIndex'
p814
g24
(g60
S'\x03\x00\x00\x00\x00\x00\x00\x00'
tRp815
sg44
g62
sg21
g22
sg16
I0
sS'trials_2.thisN'
p816
I93
sa(dp817
g29
g30
sg14
I1
sg31
g32
sS'trials_2.thisRepN'
p818
I23
sS'trials_2.thisTrialN'
p819
I2
sg23
g27
sg17
(lp820
F0.52738809585571289
asg42
g68
sg43
g69
sg15
(lp821
S'1'
asg41
g71
sg28
g11
sS'trials_2.thisIndex'
p822
g24
(g60
S'\x00\x00\x00\x00\x00\x00\x00\x00'
tRp823
sg44
g62
sg21
g22
sg16
I0
sS'trials_2.thisN'
p824
I94
sa(dp825
g29
g30
sg14
I1
sg31
g32
sS'trials_2.thisRepN'
p826
I23
sS'trials_2.thisTrialN'
p827
I3
sg23
g27
sg17
(lp828
F0.25305604934692383
asg42
g79
sg43
g80
sg15
(lp829
S'3'
asg41
g82
sg28
g11
sS'trials_2.thisIndex'
p830
g24
(g60
S'\x02\x00\x00\x00\x00\x00\x00\x00'
tRp831
sg44
g62
sg21
g22
sg16
I0
sS'trials_2.thisN'
p832
I95
sa(dp833
g29
g30
sg14
I1
sg31
g32
sS'trials_2.thisRepN'
p834
I24
sS'trials_2.thisTrialN'
p835
I0
sg23
g27
sg17
(lp836
F0.3471369743347168
asg42
g90
sg43
g91
sg15
(lp837
S'4'
asg41
g93
sg28
g11
sS'trials_2.thisIndex'
p838
g24
(g60
S'\x03\x00\x00\x00\x00\x00\x00\x00'
tRp839
sg44
g62
sg21
g22
sg16
I0
sS'trials_2.thisN'
p840
I96
sa(dp841
g29
g30
sg14
I1
sg31
g32
sS'trials_2.thisRepN'
p842
I24
sS'trials_2.thisTrialN'
p843
I1
sg23
g27
sg17
(lp844
F0.24772095680236816
asg42
g55
sg43
g56
sg15
(lp845
S'2'
asg41
g58
sg28
g11
sS'trials_2.thisIndex'
p846
g24
(g60
S'\x01\x00\x00\x00\x00\x00\x00\x00'
tRp847
sg44
g62
sg21
g22
sg16
I0
sS'trials_2.thisN'
p848
I97
sa(dp849
g29
g30
sg14
I1
sg31
g32
sS'trials_2.thisRepN'
p850
I24
sS'trials_2.thisTrialN'
p851
I2
sg23
g27
sg17
(lp852
F0.41977405548095703
asg42
g68
sg43
g69
sg15
(lp853
S'1'
asg41
g71
sg28
g11
sS'trials_2.thisIndex'
p854
g24
(g60
S'\x00\x00\x00\x00\x00\x00\x00\x00'
tRp855
sg44
g62
sg21
g22
sg16
I0
sS'trials_2.thisN'
p856
I98
sa(dp857
g29
g30
sg14
I0
sg31
g32
sS'trials_2.thisRepN'
p858
I24
sS'trials_2.thisTrialN'
p859
I3
sg23
g27
sg17
(lp860
F0.21999692916870117
aF0.51996088027954102
asg42
g79
sg43
g80
sg15
(lp861
S'4'
aS'3'
asg41
g82
sg28
g11
sS'trials_2.thisIndex'
p862
g24
(g60
S'\x02\x00\x00\x00\x00\x00\x00\x00'
tRp863
sg44
g62
sg21
g22
sg16
I0
sS'trials_2.thisN'
p864
I99
sa(dp865
g29
g30
sg14
I1
sS'trials_3.thisN'
p866
I0
sg31
g32
sg45
Vmin1.png
p867
sg17
(lp868
F0.30341410636901855
asg23
g27
sg15
(lp869
S'4'
asS'blank'
p870
VallBlank.png
p871
sS'trials_3.thisRepN'
p872
I0
sg46
Vmin2.png
p873
sg47
Vmin3.png
p874
sg48
Vmin4.png
p875
sS'trials_3.thisIndex'
p876
g24
(g60
S'\x00\x00\x00\x00\x00\x00\x00\x00'
tRp877
sg21
g22
sg16
I0
sS'trials_3.thisTrialN'
p878
I0
sg28
g11
sa(dp879
g29
g30
sg14
I0
sS'trials_3.thisN'
p880
I1
sg31
g32
sg45
g867
sg17
(lp881
F0.17562603950500488
aF0.42546701431274414
asg23
g27
sg15
(lp882
S'3'
aS'4'
asg870
g871
sS'trials_3.thisRepN'
p883
I1
sg46
g873
sg47
g874
sg48
g875
sS'trials_3.thisIndex'
p884
g24
(g60
S'\x00\x00\x00\x00\x00\x00\x00\x00'
tRp885
sg21
g22
sg16
I0
sS'trials_3.thisTrialN'
p886
I0
sg28
g11
sa(dp887
g29
g30
sg14
I0
sS'trials_3.thisN'
p888
I2
sg31
g32
sg45
g867
sg17
(lp889
F0.00045299530029296875
aF0.14537787437438965
asg23
g27
sg15
(lp890
S'3'
aS'4'
asg870
g871
sS'trials_3.thisRepN'
p891
I2
sg46
g873
sg47
g874
sg48
g875
sS'trials_3.thisIndex'
p892
g24
(g60
S'\x00\x00\x00\x00\x00\x00\x00\x00'
tRp893
sg21
g22
sg16
I0
sS'trials_3.thisTrialN'
p894
I0
sg28
g11
sa(dp895
g29
g30
sg14
I1
sS'trials_3.thisN'
p896
I3
sg31
g32
sg45
g867
sg17
(lp897
F0.2134859561920166
asg23
g27
sg15
(lp898
S'4'
asg870
g871
sS'trials_3.thisRepN'
p899
I3
sg46
g873
sg47
g874
sg48
g875
sS'trials_3.thisIndex'
p900
g24
(g60
S'\x00\x00\x00\x00\x00\x00\x00\x00'
tRp901
sg21
g22
sg16
I0
sS'trials_3.thisTrialN'
p902
I0
sg28
g11
sa(dp903
g29
g30
sg14
I0
sS'trials_3.thisN'
p904
I4
sg31
g32
sg45
g867
sg17
(lp905
F0.070415973663330078
aF0.53699493408203125
asg23
g27
sg15
(lp906
S'3'
aS'4'
asg870
g871
sS'trials_3.thisRepN'
p907
I4
sg46
g873
sg47
g874
sg48
g875
sS'trials_3.thisIndex'
p908
g24
(g60
S'\x00\x00\x00\x00\x00\x00\x00\x00'
tRp909
sg21
g22
sg16
I0
sS'trials_3.thisTrialN'
p910
I0
sg28
g11
sa(dp911
g29
g30
sg14
I0
sS'trials_3.thisN'
p912
I5
sg31
g32
sg45
g867
sg17
(lp913
F0.08539891242980957
aF0.39972496032714844
asg23
g27
sg15
(lp914
S'3'
aS'4'
asg870
g871
sS'trials_3.thisRepN'
p915
I5
sg46
g873
sg47
g874
sg48
g875
sS'trials_3.thisIndex'
p916
g24
(g60
S'\x00\x00\x00\x00\x00\x00\x00\x00'
tRp917
sg21
g22
sg16
I0
sS'trials_3.thisTrialN'
p918
I0
sg28
g11
sa(dp919
g29
g30
sg14
I0
sS'trials_3.thisN'
p920
I6
sg31
g32
sg45
g867
sg17
(lp921
F0.12731313705444336
aF0.42692995071411133
asg23
g27
sg15
(lp922
S'3'
aS'4'
asg870
g871
sS'trials_3.thisRepN'
p923
I6
sg46
g873
sg47
g874
sg48
g875
sS'trials_3.thisIndex'
p924
g24
(g60
S'\x00\x00\x00\x00\x00\x00\x00\x00'
tRp925
sg21
g22
sg16
I0
sS'trials_3.thisTrialN'
p926
I0
sg28
g11
sa(dp927
g29
g30
sg14
I1
sS'trials_3.thisN'
p928
I7
sg31
g32
sg45
g867
sg17
(lp929
F0.29713892936706543
asg23
g27
sg15
(lp930
S'4'
asg870
g871
sS'trials_3.thisRepN'
p931
I7
sg46
g873
sg47
g874
sg48
g875
sS'trials_3.thisIndex'
p932
g24
(g60
S'\x00\x00\x00\x00\x00\x00\x00\x00'
tRp933
sg21
g22
sg16
I0
sS'trials_3.thisTrialN'
p934
I0
sg28
g11
sa(dp935
g29
g30
sg14
I0
sS'trials_3.thisN'
p936
I8
sg31
g32
sg45
g867
sg17
(lp937
F0.00045084953308105469
aF0.26936101913452148
aF0.47015905380249023
asg23
g27
sg15
(lp938
S'3'
aS'1'
aS'4'
asg870
g871
sS'trials_3.thisRepN'
p939
I8
sg46
g873
sg47
g874
sg48
g875
sS'trials_3.thisIndex'
p940
g24
(g60
S'\x00\x00\x00\x00\x00\x00\x00\x00'
tRp941
sg21
g22
sg16
I0
sS'trials_3.thisTrialN'
p942
I0
sg28
g11
sa(dp943
g29
g30
sg14
I0
sS'trials_3.thisN'
p944
I9
sg31
g32
sg45
g867
sg17
(lp945
F0.18647098541259766
aF0.4029688835144043
asg23
g27
sg15
(lp946
S'3'
aS'4'
asg870
g871
sS'trials_3.thisRepN'
p947
I9
sg46
g873
sg47
g874
sg48
g875
sS'trials_3.thisIndex'
p948
g24
(g60
S'\x00\x00\x00\x00\x00\x00\x00\x00'
tRp949
sg21
g22
sg16
I0
sS'trials_3.thisTrialN'
p950
I0
sg28
g11
sa(dp951
g29
g30
sg14
I1
sS'trials_3.thisN'
p952
I0
sg31
g32
sS'pawPatrol1'
p953
Vmin1.png
p954
sg17
(lp955
F0.32764506340026855
asg23
g27
sg15
(lp956
S'4'
asS'blank'
p957
VallBlank.png
p958
sS'trials_3.thisRepN'
p959
I0
sS'pawPatrol2'
p960
Vmin2.png
p961
sS'pawPatrol3'
p962
Vmin3.png
p963
sS'pawPatrol4'
p964
Vmin4.png
p965
sS'trials_3.thisIndex'
p966
g24
(g60
S'\x00\x00\x00\x00\x00\x00\x00\x00'
tRp967
sg21
g22
sg16
I0
sS'trials_3.thisTrialN'
p968
I0
sg28
g11
sa(dp969
g29
g30
sg14
I1
sS'trials_3.thisN'
p970
I1
sg31
g32
sg953
g954
sg17
(lp971
F0.23397302627563477
asg23
g27
sg15
(lp972
S'4'
asg957
g958
sS'trials_3.thisRepN'
p973
I1
sg960
g961
sg962
g963
sg964
g965
sS'trials_3.thisIndex'
p974
g24
(g60
S'\x00\x00\x00\x00\x00\x00\x00\x00'
tRp975
sg21
g22
sg16
I0
sS'trials_3.thisTrialN'
p976
I0
sg28
g11
sa(dp977
g29
g30
sg14
I1
sS'trials_3.thisN'
p978
I2
sg31
g32
sg953
g954
sg17
(lp979
F0.10258197784423828
asg23
g27
sg15
(lp980
S'4'
asg957
g958
sS'trials_3.thisRepN'
p981
I2
sg960
g961
sg962
g963
sg964
g965
sS'trials_3.thisIndex'
p982
g24
(g60
S'\x00\x00\x00\x00\x00\x00\x00\x00'
tRp983
sg21
g22
sg16
I0
sS'trials_3.thisTrialN'
p984
I0
sg28
g11
sa(dp985
g29
g30
sg14
I1
sS'trials_3.thisN'
p986
I3
sg31
g32
sg953
g954
sg17
(lp987
F0.25606417655944824
asg23
g27
sg15
(lp988
S'4'
asg957
g958
sS'trials_3.thisRepN'
p989
I3
sg960
g961
sg962
g963
sg964
g965
sS'trials_3.thisIndex'
p990
g24
(g60
S'\x00\x00\x00\x00\x00\x00\x00\x00'
tRp991
sg21
g22
sg16
I0
sS'trials_3.thisTrialN'
p992
I0
sg28
g11
sa(dp993
g29
g30
sg14
I1
sS'trials_3.thisN'
p994
I4
sg31
g32
sg953
g954
sg17
(lp995
F0.39179301261901855
asg23
g27
sg15
(lp996
S'4'
asg957
g958
sS'trials_3.thisRepN'
p997
I4
sg960
g961
sg962
g963
sg964
g965
sS'trials_3.thisIndex'
p998
g24
(g60
S'\x00\x00\x00\x00\x00\x00\x00\x00'
tRp999
sg21
g22
sg16
I0
sS'trials_3.thisTrialN'
p1000
I0
sg28
g11
sa(dp1001
g29
g30
sg14
I1
sS'trials_3.thisN'
p1002
I5
sg31
g32
sg953
g954
sg17
(lp1003
F0.32897615432739258
asg23
g27
sg15
(lp1004
S'4'
asg957
g958
sS'trials_3.thisRepN'
p1005
I5
sg960
g961
sg962
g963
sg964
g965
sS'trials_3.thisIndex'
p1006
g24
(g60
S'\x00\x00\x00\x00\x00\x00\x00\x00'
tRp1007
sg21
g22
sg16
I0
sS'trials_3.thisTrialN'
p1008
I0
sg28
g11
sa(dp1009
g29
g30
sg14
I1
sS'trials_3.thisN'
p1010
I6
sg31
g32
sg953
g954
sg17
(lp1011
F0.28658914566040039
asg23
g27
sg15
(lp1012
S'4'
asg957
g958
sS'trials_3.thisRepN'
p1013
I6
sg960
g961
sg962
g963
sg964
g965
sS'trials_3.thisIndex'
p1014
g24
(g60
S'\x00\x00\x00\x00\x00\x00\x00\x00'
tRp1015
sg21
g22
sg16
I0
sS'trials_3.thisTrialN'
p1016
I0
sg28
g11
sa(dp1017
g29
g30
sg14
I0
sS'trials_3.thisN'
p1018
I7
sg31
g32
sg953
g954
sg17
(lp1019
F0.18762302398681641
aF0.43800711631774902
asg23
g27
sg15
(lp1020
S'3'
aS'4'
asg957
g958
sS'trials_3.thisRepN'
p1021
I7
sg960
g961
sg962
g963
sg964
g965
sS'trials_3.thisIndex'
p1022
g24
(g60
S'\x00\x00\x00\x00\x00\x00\x00\x00'
tRp1023
sg21
g22
sg16
I0
sS'trials_3.thisTrialN'
p1024
I0
sg28
g11
sa(dp1025
g29
g30
sg14
I1
sS'trials_3.thisN'
p1026
I8
sg31
g32
sg953
g954
sg17
(lp1027
F0.35323786735534668
asg23
g27
sg15
(lp1028
S'4'
asg957
g958
sS'trials_3.thisRepN'
p1029
I8
sg960
g961
sg962
g963
sg964
g965
sS'trials_3.thisIndex'
p1030
g24
(g60
S'\x00\x00\x00\x00\x00\x00\x00\x00'
tRp1031
sg21
g22
sg16
I0
sS'trials_3.thisTrialN'
p1032
I0
sg28
g11
sa(dp1033
g29
g30
sg14
I1
sS'trials_3.thisN'
p1034
I9
sg31
g32
sg953
g954
sg17
(lp1035
F0.34393882751464844
asg23
g27
sg15
(lp1036
S'4'
asg957
g958
sS'trials_3.thisRepN'
p1037
I9
sg960
g961
sg962
g963
sg964
g965
sS'trials_3.thisIndex'
p1038
g24
(g60
S'\x00\x00\x00\x00\x00\x00\x00\x00'
tRp1039
sg21
g22
sg16
I0
sS'trials_3.thisTrialN'
p1040
I0
sg28
g11
sa(dp1041
g29
g30
sg14
I1
sg31
g32
sS'trials_4.thisRepN'
p1042
I0
sg23
g27
sS'trials_4.thisIndex'
p1043
g24
(g60
S'\x01\x00\x00\x00\x00\x00\x00\x00'
tRp1044
sg17
(lp1045
F0.70249295234680176
asS'allowableKey'
p1046
(lp1047
S'2'
aS'1'
aS'3'
aS'4'
asS'correctKey'
p1048
(lp1049
S'2'
asg15
(lp1050
S'2'
asS'randomPaw'
p1051
Vmin2.png
p1052
sg28
g11
sS'blank'
p1053
VallBlank.png
p1054
sg21
g22
sg16
I0
sS'trials_4.thisN'
p1055
I0
sS'trials_4.thisTrialN'
p1056
I0
sa(dp1057
g29
g30
sg14
I1
sg31
g32
sS'trials_4.thisRepN'
p1058
I0
sg23
g27
sS'trials_4.thisIndex'
p1059
g24
(g60
S'\x00\x00\x00\x00\x00\x00\x00\x00'
tRp1060
sg17
(lp1061
F0.50267887115478516
asg1046
(lp1062
S'2'
aS'1'
aS'3'
aS'4'
asg1048
(lp1063
S'1'
asg15
(lp1064
S'1'
asg1051
Vmin1.png
p1065
sg28
g11
sg1053
g1054
sg21
g22
sg16
I0
sS'trials_4.thisN'
p1066
I1
sS'trials_4.thisTrialN'
p1067
I1
sa(dp1068
g29
g30
sg14
I1
sg31
g32
sS'trials_4.thisRepN'
p1069
I0
sg23
g27
sS'trials_4.thisIndex'
p1070
g24
(g60
S'\x02\x00\x00\x00\x00\x00\x00\x00'
tRp1071
sg17
(lp1072
F0.65436816215515137
asg1046
(lp1073
S'2'
aS'1'
aS'3'
aS'4'
asg1048
(lp1074
S'3'
asg15
(lp1075
S'3'
asg1051
Vmin3.png
p1076
sg28
g11
sg1053
g1054
sg21
g22
sg16
I0
sS'trials_4.thisN'
p1077
I2
sS'trials_4.thisTrialN'
p1078
I2
sa(dp1079
g29
g30
sg14
I1
sg31
g32
sS'trials_4.thisRepN'
p1080
I0
sg23
g27
sS'trials_4.thisIndex'
p1081
g24
(g60
S'\x03\x00\x00\x00\x00\x00\x00\x00'
tRp1082
sg17
(lp1083
F0.55344200134277344
asg1046
(lp1084
S'2'
aS'1'
aS'3'
aS'4'
asg1048
(lp1085
S'4'
asg15
(lp1086
S'4'
asg1051
Vmin4.png
p1087
sg28
g11
sg1053
g1054
sg21
g22
sg16
I0
sS'trials_4.thisN'
p1088
I3
sS'trials_4.thisTrialN'
p1089
I3
sa(dp1090
g29
g30
sg14
I1
sg31
g32
sS'trials_4.thisRepN'
p1091
I1
sg23
g27
sS'trials_4.thisIndex'
p1092
g24
(g60
S'\x03\x00\x00\x00\x00\x00\x00\x00'
tRp1093
sg17
(lp1094
F0.48598003387451172
asg1046
g1084
sg1048
g1085
sg15
(lp1095
S'4'
asg1051
g1087
sg28
g11
sg1053
g1054
sg21
g22
sg16
I0
sS'trials_4.thisN'
p1096
I4
sS'trials_4.thisTrialN'
p1097
I0
sa(dp1098
g29
g30
sg14
I0
sg31
g32
sS'trials_4.thisRepN'
p1099
I1
sg23
g27
sS'trials_4.thisIndex'
p1100
g24
(g60
S'\x02\x00\x00\x00\x00\x00\x00\x00'
tRp1101
sg17
(lp1102
F0.95296883583068848
aF1.5349059104919434
asg1046
g1073
sg1048
g1074
sg15
(lp1103
S'4'
aS'3'
asg1051
g1076
sg28
g11
sg1053
g1054
sg21
g22
sg16
I0
sS'trials_4.thisN'
p1104
I5
sS'trials_4.thisTrialN'
p1105
I1
sa(dp1106
g29
g30
sg14
I1
sg31
g32
sS'trials_4.thisRepN'
p1107
I1
sg23
g27
sS'trials_4.thisIndex'
p1108
g24
(g60
S'\x01\x00\x00\x00\x00\x00\x00\x00'
tRp1109
sg17
(lp1110
F0.7046360969543457
asg1046
g1047
sg1048
g1049
sg15
(lp1111
S'2'
asg1051
g1052
sg28
g11
sg1053
g1054
sg21
g22
sg16
I0
sS'trials_4.thisN'
p1112
I6
sS'trials_4.thisTrialN'
p1113
I2
sa(dp1114
g29
g30
sg14
I1
sg31
g32
sS'trials_4.thisRepN'
p1115
I1
sg23
g27
sS'trials_4.thisIndex'
p1116
g24
(g60
S'\x00\x00\x00\x00\x00\x00\x00\x00'
tRp1117
sg17
(lp1118
F0.76901006698608398
asg1046
g1062
sg1048
g1063
sg15
(lp1119
S'1'
asg1051
g1065
sg28
g11
sg1053
g1054
sg21
g22
sg16
I0
sS'trials_4.thisN'
p1120
I7
sS'trials_4.thisTrialN'
p1121
I3
sa(dp1122
g29
g30
sg14
I1
sg31
g32
sS'trials_4.thisRepN'
p1123
I2
sg23
g27
sS'trials_4.thisIndex'
p1124
g24
(g60
S'\x00\x00\x00\x00\x00\x00\x00\x00'
tRp1125
sg17
(lp1126
F0.65579605102539062
asg1046
g1062
sg1048
g1063
sg15
(lp1127
S'1'
asg1051
g1065
sg28
g11
sg1053
g1054
sg21
g22
sg16
I0
sS'trials_4.thisN'
p1128
I8
sS'trials_4.thisTrialN'
p1129
I0
sa(dp1130
g29
g30
sg14
I1
sg31
g32
sS'trials_4.thisRepN'
p1131
I2
sg23
g27
sS'trials_4.thisIndex'
p1132
g24
(g60
S'\x02\x00\x00\x00\x00\x00\x00\x00'
tRp1133
sg17
(lp1134
F0.35659313201904297
asg1046
g1073
sg1048
g1074
sg15
(lp1135
S'3'
asg1051
g1076
sg28
g11
sg1053
g1054
sg21
g22
sg16
I0
sS'trials_4.thisN'
p1136
I9
sS'trials_4.thisTrialN'
p1137
I1
sa(dp1138
g29
g30
sg14
I1
sg31
g32
sS'trials_4.thisRepN'
p1139
I2
sg23
g27
sS'trials_4.thisIndex'
p1140
g24
(g60
S'\x03\x00\x00\x00\x00\x00\x00\x00'
tRp1141
sg17
(lp1142
F0.70282506942749023
asg1046
g1084
sg1048
g1085
sg15
(lp1143
S'4'
asg1051
g1087
sg28
g11
sg1053
g1054
sg21
g22
sg16
I0
sS'trials_4.thisN'
p1144
I10
sS'trials_4.thisTrialN'
p1145
I2
sa(dp1146
g29
g30
sg14
I1
sg31
g32
sS'trials_4.thisRepN'
p1147
I2
sg23
g27
sS'trials_4.thisIndex'
p1148
g24
(g60
S'\x01\x00\x00\x00\x00\x00\x00\x00'
tRp1149
sg17
(lp1150
F0.56844305992126465
asg1046
g1047
sg1048
g1049
sg15
(lp1151
S'2'
asg1051
g1052
sg28
g11
sg1053
g1054
sg21
g22
sg16
I0
sS'trials_4.thisN'
p1152
I11
sS'trials_4.thisTrialN'
p1153
I3
sa(dp1154
g29
g30
sg14
I1
sg31
g32
sS'trials_4.thisRepN'
p1155
I3
sg23
g27
sS'trials_4.thisIndex'
p1156
g24
(g60
S'\x02\x00\x00\x00\x00\x00\x00\x00'
tRp1157
sg17
(lp1158
F0.58594393730163574
asg1046
g1073
sg1048
g1074
sg15
(lp1159
S'3'
asg1051
g1076
sg28
g11
sg1053
g1054
sg21
g22
sg16
I0
sS'trials_4.thisN'
p1160
I12
sS'trials_4.thisTrialN'
p1161
I0
sa(dp1162
g29
g30
sg14
I1
sg31
g32
sS'trials_4.thisRepN'
p1163
I3
sg23
g27
sS'trials_4.thisIndex'
p1164
g24
(g60
S'\x01\x00\x00\x00\x00\x00\x00\x00'
tRp1165
sg17
(lp1166
F0.49135589599609375
asg1046
g1047
sg1048
g1049
sg15
(lp1167
S'2'
asg1051
g1052
sg28
g11
sg1053
g1054
sg21
g22
sg16
I0
sS'trials_4.thisN'
p1168
I13
sS'trials_4.thisTrialN'
p1169
I1
sa(dp1170
g29
g30
sg14
I1
sg31
g32
sS'trials_4.thisRepN'
p1171
I3
sg23
g27
sS'trials_4.thisIndex'
p1172
g24
(g60
S'\x03\x00\x00\x00\x00\x00\x00\x00'
tRp1173
sg17
(lp1174
F0.42564201354980469
asg1046
g1084
sg1048
g1085
sg15
(lp1175
S'4'
asg1051
g1087
sg28
g11
sg1053
g1054
sg21
g22
sg16
I0
sS'trials_4.thisN'
p1176
I14
sS'trials_4.thisTrialN'
p1177
I2
sa(dp1178
g29
g30
sg14
I1
sg31
g32
sS'trials_4.thisRepN'
p1179
I3
sg23
g27
sS'trials_4.thisIndex'
p1180
g24
(g60
S'\x00\x00\x00\x00\x00\x00\x00\x00'
tRp1181
sg17
(lp1182
F0.39202404022216797
asg1046
g1062
sg1048
g1063
sg15
(lp1183
S'1'
asg1051
g1065
sg28
g11
sg1053
g1054
sg21
g22
sg16
I0
sS'trials_4.thisN'
p1184
I15
sS'trials_4.thisTrialN'
p1185
I3
sa(dp1186
g29
g30
sg14
I1
sg31
g32
sS'trials_4.thisRepN'
p1187
I4
sg23
g27
sS'trials_4.thisIndex'
p1188
g24
(g60
S'\x01\x00\x00\x00\x00\x00\x00\x00'
tRp1189
sg17
(lp1190
F0.46013689041137695
asg1046
g1047
sg1048
g1049
sg15
(lp1191
S'2'
asg1051
g1052
sg28
g11
sg1053
g1054
sg21
g22
sg16
I0
sS'trials_4.thisN'
p1192
I16
sS'trials_4.thisTrialN'
p1193
I0
sa(dp1194
g29
g30
sg14
I1
sg31
g32
sS'trials_4.thisRepN'
p1195
I4
sg23
g27
sS'trials_4.thisIndex'
p1196
g24
(g60
S'\x02\x00\x00\x00\x00\x00\x00\x00'
tRp1197
sg17
(lp1198
F0.29377508163452148
asg1046
g1073
sg1048
g1074
sg15
(lp1199
S'3'
asg1051
g1076
sg28
g11
sg1053
g1054
sg21
g22
sg16
I0
sS'trials_4.thisN'
p1200
I17
sS'trials_4.thisTrialN'
p1201
I1
sa(dp1202
g29
g30
sg14
I1
sg31
g32
sS'trials_4.thisRepN'
p1203
I4
sg23
g27
sS'trials_4.thisIndex'
p1204
g24
(g60
S'\x03\x00\x00\x00\x00\x00\x00\x00'
tRp1205
sg17
(lp1206
F0.57707691192626953
asg1046
g1084
sg1048
g1085
sg15
(lp1207
S'4'
asg1051
g1087
sg28
g11
sg1053
g1054
sg21
g22
sg16
I0
sS'trials_4.thisN'
p1208
I18
sS'trials_4.thisTrialN'
p1209
I2
sa(dp1210
g29
g30
sg14
I1
sg31
g32
sS'trials_4.thisRepN'
p1211
I4
sg23
g27
sS'trials_4.thisIndex'
p1212
g24
(g60
S'\x00\x00\x00\x00\x00\x00\x00\x00'
tRp1213
sg17
(lp1214
F0.45949292182922363
asg1046
g1062
sg1048
g1063
sg15
(lp1215
S'1'
asg1051
g1065
sg28
g11
sg1053
g1054
sg21
g22
sg16
I0
sS'trials_4.thisN'
p1216
I19
sS'trials_4.thisTrialN'
p1217
I3
sa(dp1218
g29
g30
sg14
I1
sg31
g32
sS'trials_4.thisRepN'
p1219
I5
sg23
g27
sS'trials_4.thisIndex'
p1220
g24
(g60
S'\x02\x00\x00\x00\x00\x00\x00\x00'
tRp1221
sg17
(lp1222
F0.60911798477172852
asg1046
g1073
sg1048
g1074
sg15
(lp1223
S'3'
asg1051
g1076
sg28
g11
sg1053
g1054
sg21
g22
sg16
I0
sS'trials_4.thisN'
p1224
I20
sS'trials_4.thisTrialN'
p1225
I0
sa(dp1226
g29
g30
sg14
I1
sg31
g32
sS'trials_4.thisRepN'
p1227
I5
sg23
g27
sS'trials_4.thisIndex'
p1228
g24
(g60
S'\x01\x00\x00\x00\x00\x00\x00\x00'
tRp1229
sg17
(lp1230
F0.57846593856811523
asg1046
g1047
sg1048
g1049
sg15
(lp1231
S'2'
asg1051
g1052
sg28
g11
sg1053
g1054
sg21
g22
sg16
I0
sS'trials_4.thisN'
p1232
I21
sS'trials_4.thisTrialN'
p1233
I1
sa(dp1234
g29
g30
sg14
I1
sg31
g32
sS'trials_4.thisRepN'
p1235
I5
sg23
g27
sS'trials_4.thisIndex'
p1236
g24
(g60
S'\x03\x00\x00\x00\x00\x00\x00\x00'
tRp1237
sg17
(lp1238
F0.54724216461181641
asg1046
g1084
sg1048
g1085
sg15
(lp1239
S'4'
asg1051
g1087
sg28
g11
sg1053
g1054
sg21
g22
sg16
I0
sS'trials_4.thisN'
p1240
I22
sS'trials_4.thisTrialN'
p1241
I2
sa(dp1242
g29
g30
sg14
I1
sg31
g32
sS'trials_4.thisRepN'
p1243
I5
sg23
g27
sS'trials_4.thisIndex'
p1244
g24
(g60
S'\x00\x00\x00\x00\x00\x00\x00\x00'
tRp1245
sg17
(lp1246
F0.59602999687194824
asg1046
g1062
sg1048
g1063
sg15
(lp1247
S'1'
asg1051
g1065
sg28
g11
sg1053
g1054
sg21
g22
sg16
I0
sS'trials_4.thisN'
p1248
I23
sS'trials_4.thisTrialN'
p1249
I3
sa(dp1250
g29
g30
sg14
I1
sg31
g32
sS'trials_4.thisRepN'
p1251
I6
sg23
g27
sS'trials_4.thisIndex'
p1252
g24
(g60
S'\x00\x00\x00\x00\x00\x00\x00\x00'
tRp1253
sg17
(lp1254
F0.44769787788391113
asg1046
g1062
sg1048
g1063
sg15
(lp1255
S'1'
asg1051
g1065
sg28
g11
sg1053
g1054
sg21
g22
sg16
I0
sS'trials_4.thisN'
p1256
I24
sS'trials_4.thisTrialN'
p1257
I0
sa(dp1258
g29
g30
sg14
I1
sg31
g32
sS'trials_4.thisRepN'
p1259
I6
sg23
g27
sS'trials_4.thisIndex'
p1260
g24
(g60
S'\x02\x00\x00\x00\x00\x00\x00\x00'
tRp1261
sg17
(lp1262
F0.34684109687805176
asg1046
g1073
sg1048
g1074
sg15
(lp1263
S'3'
asg1051
g1076
sg28
g11
sg1053
g1054
sg21
g22
sg16
I0
sS'trials_4.thisN'
p1264
I25
sS'trials_4.thisTrialN'
p1265
I1
sa(dp1266
g29
g30
sg14
I1
sg31
g32
sS'trials_4.thisRepN'
p1267
I6
sg23
g27
sS'trials_4.thisIndex'
p1268
g24
(g60
S'\x01\x00\x00\x00\x00\x00\x00\x00'
tRp1269
sg17
(lp1270
F0.79556703567504883
asg1046
g1047
sg1048
g1049
sg15
(lp1271
S'2'
asg1051
g1052
sg28
g11
sg1053
g1054
sg21
g22
sg16
I0
sS'trials_4.thisN'
p1272
I26
sS'trials_4.thisTrialN'
p1273
I2
sa(dp1274
g29
g30
sg14
I1
sg31
g32
sS'trials_4.thisRepN'
p1275
I6
sg23
g27
sS'trials_4.thisIndex'
p1276
g24
(g60
S'\x03\x00\x00\x00\x00\x00\x00\x00'
tRp1277
sg17
(lp1278
F0.51436209678649902
asg1046
g1084
sg1048
g1085
sg15
(lp1279
S'4'
asg1051
g1087
sg28
g11
sg1053
g1054
sg21
g22
sg16
I0
sS'trials_4.thisN'
p1280
I27
sS'trials_4.thisTrialN'
p1281
I3
sa(dp1282
g29
g30
sg14
I1
sg31
g32
sS'trials_4.thisRepN'
p1283
I7
sg23
g27
sS'trials_4.thisIndex'
p1284
g24
(g60
S'\x00\x00\x00\x00\x00\x00\x00\x00'
tRp1285
sg17
(lp1286
F0.38408994674682617
asg1046
g1062
sg1048
g1063
sg15
(lp1287
S'1'
asg1051
g1065
sg28
g11
sg1053
g1054
sg21
g22
sg16
I0
sS'trials_4.thisN'
p1288
I28
sS'trials_4.thisTrialN'
p1289
I0
sa(dp1290
g29
g30
sg14
I1
sg31
g32
sS'trials_4.thisRepN'
p1291
I7
sg23
g27
sS'trials_4.thisIndex'
p1292
g24
(g60
S'\x02\x00\x00\x00\x00\x00\x00\x00'
tRp1293
sg17
(lp1294
F0.43562197685241699
asg1046
g1073
sg1048
g1074
sg15
(lp1295
S'3'
asg1051
g1076
sg28
g11
sg1053
g1054
sg21
g22
sg16
I0
sS'trials_4.thisN'
p1296
I29
sS'trials_4.thisTrialN'
p1297
I1
sa(dp1298
g29
g30
sg14
I1
sg31
g32
sS'trials_4.thisRepN'
p1299
I7
sg23
g27
sS'trials_4.thisIndex'
p1300
g24
(g60
S'\x01\x00\x00\x00\x00\x00\x00\x00'
tRp1301
sg17
(lp1302
F0.45357012748718262
asg1046
g1047
sg1048
g1049
sg15
(lp1303
S'2'
asg1051
g1052
sg28
g11
sg1053
g1054
sg21
g22
sg16
I0
sS'trials_4.thisN'
p1304
I30
sS'trials_4.thisTrialN'
p1305
I2
sa(dp1306
g29
g30
sg14
I1
sg31
g32
sS'trials_4.thisRepN'
p1307
I7
sg23
g27
sS'trials_4.thisIndex'
p1308
g24
(g60
S'\x03\x00\x00\x00\x00\x00\x00\x00'
tRp1309
sg17
(lp1310
F0.96532797813415527
asg1046
g1084
sg1048
g1085
sg15
(lp1311
S'4'
asg1051
g1087
sg28
g11
sg1053
g1054
sg21
g22
sg16
I0
sS'trials_4.thisN'
p1312
I31
sS'trials_4.thisTrialN'
p1313
I3
sa(dp1314
g29
g30
sg14
I1
sg31
g32
sS'trials_4.thisRepN'
p1315
I8
sg23
g27
sS'trials_4.thisIndex'
p1316
g24
(g60
S'\x01\x00\x00\x00\x00\x00\x00\x00'
tRp1317
sg17
(lp1318
F0.53776001930236816
asg1046
g1047
sg1048
g1049
sg15
(lp1319
S'2'
asg1051
g1052
sg28
g11
sg1053
g1054
sg21
g22
sg16
I0
sS'trials_4.thisN'
p1320
I32
sS'trials_4.thisTrialN'
p1321
I0
sa(dp1322
g29
g30
sg14
I1
sg31
g32
sS'trials_4.thisRepN'
p1323
I8
sg23
g27
sS'trials_4.thisIndex'
p1324
g24
(g60
S'\x00\x00\x00\x00\x00\x00\x00\x00'
tRp1325
sg17
(lp1326
F0.68228912353515625
asg1046
g1062
sg1048
g1063
sg15
(lp1327
S'1'
asg1051
g1065
sg28
g11
sg1053
g1054
sg21
g22
sg16
I0
sS'trials_4.thisN'
p1328
I33
sS'trials_4.thisTrialN'
p1329
I1
sa(dp1330
g29
g30
sg14
I1
sg31
g32
sS'trials_4.thisRepN'
p1331
I8
sg23
g27
sS'trials_4.thisIndex'
p1332
g24
(g60
S'\x03\x00\x00\x00\x00\x00\x00\x00'
tRp1333
sg17
(lp1334
F0.51953911781311035
asg1046
g1084
sg1048
g1085
sg15
(lp1335
S'4'
asg1051
g1087
sg28
g11
sg1053
g1054
sg21
g22
sg16
I0
sS'trials_4.thisN'
p1336
I34
sS'trials_4.thisTrialN'
p1337
I2
sa(dp1338
g29
g30
sg14
I1
sg31
g32
sS'trials_4.thisRepN'
p1339
I8
sg23
g27
sS'trials_4.thisIndex'
p1340
g24
(g60
S'\x02\x00\x00\x00\x00\x00\x00\x00'
tRp1341
sg17
(lp1342
F0.40273499488830566
asg1046
g1073
sg1048
g1074
sg15
(lp1343
S'3'
asg1051
g1076
sg28
g11
sg1053
g1054
sg21
g22
sg16
I0
sS'trials_4.thisN'
p1344
I35
sS'trials_4.thisTrialN'
p1345
I3
sa(dp1346
g29
g30
sg14
I0
sg31
g32
sS'trials_4.thisRepN'
p1347
I9
sg23
g27
sS'trials_4.thisIndex'
p1348
g24
(g60
S'\x02\x00\x00\x00\x00\x00\x00\x00'
tRp1349
sg17
(lp1350
F0.45303797721862793
aF0.82036089897155762
asg1046
g1073
sg1048
g1074
sg15
(lp1351
S'4'
aS'3'
asg1051
g1076
sg28
g11
sg1053
g1054
sg21
g22
sg16
I0
sS'trials_4.thisN'
p1352
I36
sS'trials_4.thisTrialN'
p1353
I0
sa(dp1354
g29
g30
sg14
I1
sg31
g32
sS'trials_4.thisRepN'
p1355
I9
sg23
g27
sS'trials_4.thisIndex'
p1356
g24
(g60
S'\x03\x00\x00\x00\x00\x00\x00\x00'
tRp1357
sg17
(lp1358
F0.41976213455200195
asg1046
g1084
sg1048
g1085
sg15
(lp1359
S'4'
asg1051
g1087
sg28
g11
sg1053
g1054
sg21
g22
sg16
I0
sS'trials_4.thisN'
p1360
I37
sS'trials_4.thisTrialN'
p1361
I1
sa(dp1362
g29
g30
sg14
I1
sg31
g32
sS'trials_4.thisRepN'
p1363
I9
sg23
g27
sS'trials_4.thisIndex'
p1364
g24
(g60
S'\x01\x00\x00\x00\x00\x00\x00\x00'
tRp1365
sg17
(lp1366
F0.43804097175598145
asg1046
g1047
sg1048
g1049
sg15
(lp1367
S'2'
asg1051
g1052
sg28
g11
sg1053
g1054
sg21
g22
sg16
I0
sS'trials_4.thisN'
p1368
I38
sS'trials_4.thisTrialN'
p1369
I2
sa(dp1370
g29
g30
sg14
I1
sg31
g32
sS'trials_4.thisRepN'
p1371
I9
sg23
g27
sS'trials_4.thisIndex'
p1372
g24
(g60
S'\x00\x00\x00\x00\x00\x00\x00\x00'
tRp1373
sg17
(lp1374
F0.33731198310852051
asg1046
g1062
sg1048
g1063
sg15
(lp1375
S'1'
asg1051
g1065
sg28
g11
sg1053
g1054
sg21
g22
sg16
I0
sS'trials_4.thisN'
p1376
I39
sS'trials_4.thisTrialN'
p1377
I3
sa(dp1378
g29
g30
sg14
I1
sg31
g32
sS'trials_4.thisRepN'
p1379
I10
sg23
g27
sS'trials_4.thisIndex'
p1380
g24
(g60
S'\x03\x00\x00\x00\x00\x00\x00\x00'
tRp1381
sg17
(lp1382
F0.40534400939941406
asg1046
g1084
sg1048
g1085
sg15
(lp1383
S'4'
asg1051
g1087
sg28
g11
sg1053
g1054
sg21
g22
sg16
I0
sS'trials_4.thisN'
p1384
I40
sS'trials_4.thisTrialN'
p1385
I0
sa(dp1386
g29
g30
sg14
I1
sg31
g32
sS'trials_4.thisRepN'
p1387
I10
sg23
g27
sS'trials_4.thisIndex'
p1388
g24
(g60
S'\x00\x00\x00\x00\x00\x00\x00\x00'
tRp1389
sg17
(lp1390
F0.33697295188903809
asg1046
g1062
sg1048
g1063
sg15
(lp1391
S'1'
asg1051
g1065
sg28
g11
sg1053
g1054
sg21
g22
sg16
I0
sS'trials_4.thisN'
p1392
I41
sS'trials_4.thisTrialN'
p1393
I1
sa(dp1394
g29
g30
sg14
I1
sg31
g32
sS'trials_4.thisRepN'
p1395
I10
sg23
g27
sS'trials_4.thisIndex'
p1396
g24
(g60
S'\x02\x00\x00\x00\x00\x00\x00\x00'
tRp1397
sg17
(lp1398
F0.27242207527160645
asg1046
g1073
sg1048
g1074
sg15
(lp1399
S'3'
asg1051
g1076
sg28
g11
sg1053
g1054
sg21
g22
sg16
I0
sS'trials_4.thisN'
p1400
I42
sS'trials_4.thisTrialN'
p1401
I2
sa(dp1402
g29
g30
sg14
I1
sg31
g32
sS'trials_4.thisRepN'
p1403
I10
sg23
g27
sS'trials_4.thisIndex'
p1404
g24
(g60
S'\x01\x00\x00\x00\x00\x00\x00\x00'
tRp1405
sg17
(lp1406
F0.28673505783081055
asg1046
g1047
sg1048
g1049
sg15
(lp1407
S'2'
asg1051
g1052
sg28
g11
sg1053
g1054
sg21
g22
sg16
I0
sS'trials_4.thisN'
p1408
I43
sS'trials_4.thisTrialN'
p1409
I3
sa(dp1410
g29
g30
sg14
I1
sg31
g32
sS'trials_4.thisRepN'
p1411
I11
sg23
g27
sS'trials_4.thisIndex'
p1412
g24
(g60
S'\x02\x00\x00\x00\x00\x00\x00\x00'
tRp1413
sg17
(lp1414
F0.51891207695007324
asg1046
g1073
sg1048
g1074
sg15
(lp1415
S'3'
asg1051
g1076
sg28
g11
sg1053
g1054
sg21
g22
sg16
I0
sS'trials_4.thisN'
p1416
I44
sS'trials_4.thisTrialN'
p1417
I0
sa(dp1418
g29
g30
sg14
I0
sg31
g32
sS'trials_4.thisRepN'
p1419
I11
sg23
g27
sS'trials_4.thisIndex'
p1420
g24
(g60
S'\x01\x00\x00\x00\x00\x00\x00\x00'
tRp1421
sg17
(lp1422
F0.31459712982177734
aF0.584075927734375
asg1046
g1047
sg1048
g1049
sg15
(lp1423
S'1'
aS'2'
asg1051
g1052
sg28
g11
sg1053
g1054
sg21
g22
sg16
I0
sS'trials_4.thisN'
p1424
I45
sS'trials_4.thisTrialN'
p1425
I1
sa(dp1426
g29
g30
sg14
I1
sg31
g32
sS'trials_4.thisRepN'
p1427
I11
sg23
g27
sS'trials_4.thisIndex'
p1428
g24
(g60
S'\x00\x00\x00\x00\x00\x00\x00\x00'
tRp1429
sg17
(lp1430
F0.36913204193115234
asg1046
g1062
sg1048
g1063
sg15
(lp1431
S'1'
asg1051
g1065
sg28
g11
sg1053
g1054
sg21
g22
sg16
I0
sS'trials_4.thisN'
p1432
I46
sS'trials_4.thisTrialN'
p1433
I2
sa(dp1434
g29
g30
sg14
I1
sg31
g32
sS'trials_4.thisRepN'
p1435
I11
sg23
g27
sS'trials_4.thisIndex'
p1436
g24
(g60
S'\x03\x00\x00\x00\x00\x00\x00\x00'
tRp1437
sg17
(lp1438
F0.26778912544250488
asg1046
g1084
sg1048
g1085
sg15
(lp1439
S'4'
asg1051
g1087
sg28
g11
sg1053
g1054
sg21
g22
sg16
I0
sS'trials_4.thisN'
p1440
I47
sS'trials_4.thisTrialN'
p1441
I3
sa(dp1442
g29
g30
sg14
I1
sg31
g32
sS'trials_4.thisRepN'
p1443
I12
sg23
g27
sS'trials_4.thisIndex'
p1444
g24
(g60
S'\x03\x00\x00\x00\x00\x00\x00\x00'
tRp1445
sg17
(lp1446
F0.40923500061035156
asg1046
g1084
sg1048
g1085
sg15
(lp1447
S'4'
asg1051
g1087
sg28
g11
sg1053
g1054
sg21
g22
sg16
I0
sS'trials_4.thisN'
p1448
I48
sS'trials_4.thisTrialN'
p1449
I0
sa(dp1450
g29
g30
sg14
I1
sg31
g32
sS'trials_4.thisRepN'
p1451
I12
sg23
g27
sS'trials_4.thisIndex'
p1452
g24
(g60
S'\x00\x00\x00\x00\x00\x00\x00\x00'
tRp1453
sg17
(lp1454
F0.37561416625976562
asg1046
g1062
sg1048
g1063
sg15
(lp1455
S'1'
asg1051
g1065
sg28
g11
sg1053
g1054
sg21
g22
sg16
I0
sS'trials_4.thisN'
p1456
I49
sS'trials_4.thisTrialN'
p1457
I1
sa(dp1458
g29
g30
sg14
I1
sg31
g32
sS'trials_4.thisRepN'
p1459
I12
sg23
g27
sS'trials_4.thisIndex'
p1460
g24
(g60
S'\x02\x00\x00\x00\x00\x00\x00\x00'
tRp1461
sg17
(lp1462
F0.64344596862792969
asg1046
g1073
sg1048
g1074
sg15
(lp1463
S'3'
asg1051
g1076
sg28
g11
sg1053
g1054
sg21
g22
sg16
I0
sS'trials_4.thisN'
p1464
I50
sS'trials_4.thisTrialN'
p1465
I2
sa(dp1466
g29
g30
sg14
I1
sg31
g32
sS'trials_4.thisRepN'
p1467
I12
sg23
g27
sS'trials_4.thisIndex'
p1468
g24
(g60
S'\x01\x00\x00\x00\x00\x00\x00\x00'
tRp1469
sg17
(lp1470
F0.64415812492370605
asg1046
g1047
sg1048
g1049
sg15
(lp1471
S'2'
asg1051
g1052
sg28
g11
sg1053
g1054
sg21
g22
sg16
I0
sS'trials_4.thisN'
p1472
I51
sS'trials_4.thisTrialN'
p1473
I3
sa(dp1474
g29
g30
sg14
I1
sg31
g32
sS'trials_4.thisRepN'
p1475
I13
sg23
g27
sS'trials_4.thisIndex'
p1476
g24
(g60
S'\x00\x00\x00\x00\x00\x00\x00\x00'
tRp1477
sg17
(lp1478
F0.41050004959106445
asg1046
g1062
sg1048
g1063
sg15
(lp1479
S'1'
asg1051
g1065
sg28
g11
sg1053
g1054
sg21
g22
sg16
I0
sS'trials_4.thisN'
p1480
I52
sS'trials_4.thisTrialN'
p1481
I0
sa(dp1482
g29
g30
sg14
I1
sg31
g32
sS'trials_4.thisRepN'
p1483
I13
sg23
g27
sS'trials_4.thisIndex'
p1484
g24
(g60
S'\x01\x00\x00\x00\x00\x00\x00\x00'
tRp1485
sg17
(lp1486
F0.42588305473327637
asg1046
g1047
sg1048
g1049
sg15
(lp1487
S'2'
asg1051
g1052
sg28
g11
sg1053
g1054
sg21
g22
sg16
I0
sS'trials_4.thisN'
p1488
I53
sS'trials_4.thisTrialN'
p1489
I1
sa(dp1490
g29
g30
sg14
I1
sg31
g32
sS'trials_4.thisRepN'
p1491
I13
sg23
g27
sS'trials_4.thisIndex'
p1492
g24
(g60
S'\x03\x00\x00\x00\x00\x00\x00\x00'
tRp1493
sg17
(lp1494
F0.64473605155944824
asg1046
g1084
sg1048
g1085
sg15
(lp1495
S'4'
asg1051
g1087
sg28
g11
sg1053
g1054
sg21
g22
sg16
I0
sS'trials_4.thisN'
p1496
I54
sS'trials_4.thisTrialN'
p1497
I2
sa(dp1498
g29
g30
sg14
I0
sg31
g32
sS'trials_4.thisRepN'
p1499
I13
sg23
g27
sS'trials_4.thisIndex'
p1500
g24
(g60
S'\x02\x00\x00\x00\x00\x00\x00\x00'
tRp1501
sg17
(lp1502
F0.0003299713134765625
aF0.36101293563842773
asg1046
g1073
sg1048
g1074
sg15
(lp1503
S'4'
aS'3'
asg1051
g1076
sg28
g11
sg1053
g1054
sg21
g22
sg16
I0
sS'trials_4.thisN'
p1504
I55
sS'trials_4.thisTrialN'
p1505
I3
sa(dp1506
g29
g30
sg14
I1
sg31
g32
sS'trials_4.thisRepN'
p1507
I14
sg23
g27
sS'trials_4.thisIndex'
p1508
g24
(g60
S'\x02\x00\x00\x00\x00\x00\x00\x00'
tRp1509
sg17
(lp1510
F0.39594793319702148
asg1046
g1073
sg1048
g1074
sg15
(lp1511
S'3'
asg1051
g1076
sg28
g11
sg1053
g1054
sg21
g22
sg16
I0
sS'trials_4.thisN'
p1512
I56
sS'trials_4.thisTrialN'
p1513
I0
sa(dp1514
g29
g30
sg14
I1
sg31
g32
sS'trials_4.thisRepN'
p1515
I14
sg23
g27
sS'trials_4.thisIndex'
p1516
g24
(g60
S'\x01\x00\x00\x00\x00\x00\x00\x00'
tRp1517
sg17
(lp1518
F0.29494714736938477
asg1046
g1047
sg1048
g1049
sg15
(lp1519
S'2'
asg1051
g1052
sg28
g11
sg1053
g1054
sg21
g22
sg16
I0
sS'trials_4.thisN'
p1520
I57
sS'trials_4.thisTrialN'
p1521
I1
sa(dp1522
g29
g30
sg14
I1
sg31
g32
sS'trials_4.thisRepN'
p1523
I14
sg23
g27
sS'trials_4.thisIndex'
p1524
g24
(g60
S'\x03\x00\x00\x00\x00\x00\x00\x00'
tRp1525
sg17
(lp1526
F0.23454093933105469
asg1046
g1084
sg1048
g1085
sg15
(lp1527
S'4'
asg1051
g1087
sg28
g11
sg1053
g1054
sg21
g22
sg16
I0
sS'trials_4.thisN'
p1528
I58
sS'trials_4.thisTrialN'
p1529
I2
sa(dp1530
g29
g30
sg14
I1
sg31
g32
sS'trials_4.thisRepN'
p1531
I14
sg23
g27
sS'trials_4.thisIndex'
p1532
g24
(g60
S'\x00\x00\x00\x00\x00\x00\x00\x00'
tRp1533
sg17
(lp1534
F0.5297539234161377
asg1046
g1062
sg1048
g1063
sg15
(lp1535
S'1'
asg1051
g1065
sg28
g11
sg1053
g1054
sg21
g22
sg16
I0
sS'trials_4.thisN'
p1536
I59
sS'trials_4.thisTrialN'
p1537
I3
sa(dp1538
g29
g30
sg14
I1
sg31
g32
sS'trials_4.thisRepN'
p1539
I15
sg23
g27
sS'trials_4.thisIndex'
p1540
g24
(g60
S'\x03\x00\x00\x00\x00\x00\x00\x00'
tRp1541
sg17
(lp1542
F0.43082189559936523
asg1046
g1084
sg1048
g1085
sg15
(lp1543
S'4'
asg1051
g1087
sg28
g11
sg1053
g1054
sg21
g22
sg16
I0
sS'trials_4.thisN'
p1544
I60
sS'trials_4.thisTrialN'
p1545
I0
sa(dp1546
g29
g30
sg14
I0
sg31
g32
sS'trials_4.thisRepN'
p1547
I15
sg23
g27
sS'trials_4.thisIndex'
p1548
g24
(g60
S'\x02\x00\x00\x00\x00\x00\x00\x00'
tRp1549
sg17
(lp1550
F0.43060803413391113
aF0.53079891204833984
asg1046
g1073
sg1048
g1074
sg15
(lp1551
S'4'
aS'3'
asg1051
g1076
sg28
g11
sg1053
g1054
sg21
g22
sg16
I0
sS'trials_4.thisN'
p1552
I61
sS'trials_4.thisTrialN'
p1553
I1
sa(dp1554
g29
g30
sg14
I1
sg31
g32
sS'trials_4.thisRepN'
p1555
I15
sg23
g27
sS'trials_4.thisIndex'
p1556
g24
(g60
S'\x00\x00\x00\x00\x00\x00\x00\x00'
tRp1557
sg17
(lp1558
F0.65426087379455566
asg1046
g1062
sg1048
g1063
sg15
(lp1559
S'1'
asg1051
g1065
sg28
g11
sg1053
g1054
sg21
g22
sg16
I0
sS'trials_4.thisN'
p1560
I62
sS'trials_4.thisTrialN'
p1561
I2
sa(dp1562
g29
g30
sg14
I1
sg31
g32
sS'trials_4.thisRepN'
p1563
I15
sg23
g27
sS'trials_4.thisIndex'
p1564
g24
(g60
S'\x01\x00\x00\x00\x00\x00\x00\x00'
tRp1565
sg17
(lp1566
F0.44787311553955078
asg1046
g1047
sg1048
g1049
sg15
(lp1567
S'2'
asg1051
g1052
sg28
g11
sg1053
g1054
sg21
g22
sg16
I0
sS'trials_4.thisN'
p1568
I63
sS'trials_4.thisTrialN'
p1569
I3
sa(dp1570
g29
g30
sg14
I1
sg31
g32
sS'trials_4.thisRepN'
p1571
I16
sg23
g27
sS'trials_4.thisIndex'
p1572
g24
(g60
S'\x02\x00\x00\x00\x00\x00\x00\x00'
tRp1573
sg17
(lp1574
F0.5815122127532959
asg1046
g1073
sg1048
g1074
sg15
(lp1575
S'3'
asg1051
g1076
sg28
g11
sg1053
g1054
sg21
g22
sg16
I0
sS'trials_4.thisN'
p1576
I64
sS'trials_4.thisTrialN'
p1577
I0
sa(dp1578
g29
g30
sg14
I1
sg31
g32
sS'trials_4.thisRepN'
p1579
I16
sg23
g27
sS'trials_4.thisIndex'
p1580
g24
(g60
S'\x00\x00\x00\x00\x00\x00\x00\x00'
tRp1581
sg17
(lp1582
F0.58587098121643066
asg1046
g1062
sg1048
g1063
sg15
(lp1583
S'1'
asg1051
g1065
sg28
g11
sg1053
g1054
sg21
g22
sg16
I0
sS'trials_4.thisN'
p1584
I65
sS'trials_4.thisTrialN'
p1585
I1
sa(dp1586
g29
g30
sg14
I1
sg31
g32
sS'trials_4.thisRepN'
p1587
I16
sg23
g27
sS'trials_4.thisIndex'
p1588
g24
(g60
S'\x01\x00\x00\x00\x00\x00\x00\x00'
tRp1589
sg17
(lp1590
F0.68674397468566895
asg1046
g1047
sg1048
g1049
sg15
(lp1591
S'2'
asg1051
g1052
sg28
g11
sg1053
g1054
sg21
g22
sg16
I0
sS'trials_4.thisN'
p1592
I66
sS'trials_4.thisTrialN'
p1593
I2
sa(dp1594
g29
g30
sg14
I1
sg31
g32
sS'trials_4.thisRepN'
p1595
I16
sg23
g27
sS'trials_4.thisIndex'
p1596
g24
(g60
S'\x03\x00\x00\x00\x00\x00\x00\x00'
tRp1597
sg17
(lp1598
F0.63601303100585938
asg1046
g1084
sg1048
g1085
sg15
(lp1599
S'4'
asg1051
g1087
sg28
g11
sg1053
g1054
sg21
g22
sg16
I0
sS'trials_4.thisN'
p1600
I67
sS'trials_4.thisTrialN'
p1601
I3
sa(dp1602
g29
g30
sg14
I1
sg31
g32
sS'trials_4.thisRepN'
p1603
I17
sg23
g27
sS'trials_4.thisIndex'
p1604
g24
(g60
S'\x02\x00\x00\x00\x00\x00\x00\x00'
tRp1605
sg17
(lp1606
F0.98645186424255371
asg1046
g1073
sg1048
g1074
sg15
(lp1607
S'3'
asg1051
g1076
sg28
g11
sg1053
g1054
sg21
g22
sg16
I0
sS'trials_4.thisN'
p1608
I68
sS'trials_4.thisTrialN'
p1609
I0
sa(dp1610
g29
g30
sg14
I1
sg31
g32
sS'trials_4.thisRepN'
p1611
I17
sg23
g27
sS'trials_4.thisIndex'
p1612
g24
(g60
S'\x01\x00\x00\x00\x00\x00\x00\x00'
tRp1613
sg17
(lp1614
F0.36870193481445312
asg1046
g1047
sg1048
g1049
sg15
(lp1615
S'2'
asg1051
g1052
sg28
g11
sg1053
g1054
sg21
g22
sg16
I0
sS'trials_4.thisN'
p1616
I69
sS'trials_4.thisTrialN'
p1617
I1
sa(dp1618
g29
g30
sg14
I1
sg31
g32
sS'trials_4.thisRepN'
p1619
I17
sg23
g27
sS'trials_4.thisIndex'
p1620
g24
(g60
S'\x00\x00\x00\x00\x00\x00\x00\x00'
tRp1621
sg17
(lp1622
F0.38718104362487793
asg1046
g1062
sg1048
g1063
sg15
(lp1623
S'1'
asg1051
g1065
sg28
g11
sg1053
g1054
sg21
g22
sg16
I0
sS'trials_4.thisN'
p1624
I70
sS'trials_4.thisTrialN'
p1625
I2
sa(dp1626
g29
g30
sg14
I1
sg31
g32
sS'trials_4.thisRepN'
p1627
I17
sg23
g27
sS'trials_4.thisIndex'
p1628
g24
(g60
S'\x03\x00\x00\x00\x00\x00\x00\x00'
tRp1629
sg17
(lp1630
F0.28598499298095703
asg1046
g1084
sg1048
g1085
sg15
(lp1631
S'4'
asg1051
g1087
sg28
g11
sg1053
g1054
sg21
g22
sg16
I0
sS'trials_4.thisN'
p1632
I71
sS'trials_4.thisTrialN'
p1633
I3
sa(dp1634
g29
g30
sg14
I1
sg31
g32
sS'trials_4.thisRepN'
p1635
I18
sg23
g27
sS'trials_4.thisIndex'
p1636
g24
(g60
S'\x00\x00\x00\x00\x00\x00\x00\x00'
tRp1637
sg17
(lp1638
F0.38671994209289551
asg1046
g1062
sg1048
g1063
sg15
(lp1639
S'1'
asg1051
g1065
sg28
g11
sg1053
g1054
sg21
g22
sg16
I0
sS'trials_4.thisN'
p1640
I72
sS'trials_4.thisTrialN'
p1641
I0
sa(dp1642
g29
g30
sg14
I1
sg31
g32
sS'trials_4.thisRepN'
p1643
I18
sg23
g27
sS'trials_4.thisIndex'
p1644
g24
(g60
S'\x03\x00\x00\x00\x00\x00\x00\x00'
tRp1645
sg17
(lp1646
F0.4715571403503418
asg1046
g1084
sg1048
g1085
sg15
(lp1647
S'4'
asg1051
g1087
sg28
g11
sg1053
g1054
sg21
g22
sg16
I0
sS'trials_4.thisN'
p1648
I73
sS'trials_4.thisTrialN'
p1649
I1
sa(dp1650
g29
g30
sg14
I1
sg31
g32
sS'trials_4.thisRepN'
p1651
I18
sg23
g27
sS'trials_4.thisIndex'
p1652
g24
(g60
S'\x02\x00\x00\x00\x00\x00\x00\x00'
tRp1653
sg17
(lp1654
F0.50443696975708008
asg1046
g1073
sg1048
g1074
sg15
(lp1655
S'3'
asg1051
g1076
sg28
g11
sg1053
g1054
sg21
g22
sg16
I0
sS'trials_4.thisN'
p1656
I74
sS'trials_4.thisTrialN'
p1657
I2
sa(dp1658
g29
g30
sg14
I1
sg31
g32
sS'trials_4.thisRepN'
p1659
I18
sg23
g27
sS'trials_4.thisIndex'
p1660
g24
(g60
S'\x01\x00\x00\x00\x00\x00\x00\x00'
tRp1661
sg17
(lp1662
F0.30539298057556152
asg1046
g1047
sg1048
g1049
sg15
(lp1663
S'2'
asg1051
g1052
sg28
g11
sg1053
g1054
sg21
g22
sg16
I0
sS'trials_4.thisN'
p1664
I75
sS'trials_4.thisTrialN'
p1665
I3
sa(dp1666
g29
g30
sg14
I1
sg31
g32
sS'trials_4.thisRepN'
p1667
I19
sg23
g27
sS'trials_4.thisIndex'
p1668
g24
(g60
S'\x00\x00\x00\x00\x00\x00\x00\x00'
tRp1669
sg17
(lp1670
F0.33861804008483887
asg1046
g1062
sg1048
g1063
sg15
(lp1671
S'1'
asg1051
g1065
sg28
g11
sg1053
g1054
sg21
g22
sg16
I0
sS'trials_4.thisN'
p1672
I76
sS'trials_4.thisTrialN'
p1673
I0
sa(dp1674
g29
g30
sg14
I1
sg31
g32
sS'trials_4.thisRepN'
p1675
I19
sg23
g27
sS'trials_4.thisIndex'
p1676
g24
(g60
S'\x01\x00\x00\x00\x00\x00\x00\x00'
tRp1677
sg17
(lp1678
F0.45670104026794434
asg1046
g1047
sg1048
g1049
sg15
(lp1679
S'2'
asg1051
g1052
sg28
g11
sg1053
g1054
sg21
g22
sg16
I0
sS'trials_4.thisN'
p1680
I77
sS'trials_4.thisTrialN'
p1681
I1
sa(dp1682
g29
g30
sg14
I1
sg31
g32
sS'trials_4.thisRepN'
p1683
I19
sg23
g27
sS'trials_4.thisIndex'
p1684
g24
(g60
S'\x02\x00\x00\x00\x00\x00\x00\x00'
tRp1685
sg17
(lp1686
F0.30736398696899414
asg1046
g1073
sg1048
g1074
sg15
(lp1687
S'3'
asg1051
g1076
sg28
g11
sg1053
g1054
sg21
g22
sg16
I0
sS'trials_4.thisN'
p1688
I78
sS'trials_4.thisTrialN'
p1689
I2
sa(dp1690
g29
g30
sg14
I1
sg31
g32
sS'trials_4.thisRepN'
p1691
I19
sg23
g27
sS'trials_4.thisIndex'
p1692
g24
(g60
S'\x03\x00\x00\x00\x00\x00\x00\x00'
tRp1693
sg17
(lp1694
F0.28368186950683594
asg1046
g1084
sg1048
g1085
sg15
(lp1695
S'4'
asg1051
g1087
sg28
g11
sg1053
g1054
sg21
g22
sg16
I0
sS'trials_4.thisN'
p1696
I79
sS'trials_4.thisTrialN'
p1697
I3
sa(dp1698
g29
g30
sg14
I1
sg31
g32
sS'trials_4.thisRepN'
p1699
I20
sg23
g27
sS'trials_4.thisIndex'
p1700
g24
(g60
S'\x01\x00\x00\x00\x00\x00\x00\x00'
tRp1701
sg17
(lp1702
F0.55207610130310059
asg1046
g1047
sg1048
g1049
sg15
(lp1703
S'2'
asg1051
g1052
sg28
g11
sg1053
g1054
sg21
g22
sg16
I0
sS'trials_4.thisN'
p1704
I80
sS'trials_4.thisTrialN'
p1705
I0
sa(dp1706
g29
g30
sg14
I1
sg31
g32
sS'trials_4.thisRepN'
p1707
I20
sg23
g27
sS'trials_4.thisIndex'
p1708
g24
(g60
S'\x02\x00\x00\x00\x00\x00\x00\x00'
tRp1709
sg17
(lp1710
F0.3863670825958252
asg1046
g1073
sg1048
g1074
sg15
(lp1711
S'3'
asg1051
g1076
sg28
g11
sg1053
g1054
sg21
g22
sg16
I0
sS'trials_4.thisN'
p1712
I81
sS'trials_4.thisTrialN'
p1713
I1
sa(dp1714
g29
g30
sg14
I1
sg31
g32
sS'trials_4.thisRepN'
p1715
I20
sg23
g27
sS'trials_4.thisIndex'
p1716
g24
(g60
S'\x00\x00\x00\x00\x00\x00\x00\x00'
tRp1717
sg17
(lp1718
F0.35368990898132324
asg1046
g1062
sg1048
g1063
sg15
(lp1719
S'1'
asg1051
g1065
sg28
g11
sg1053
g1054
sg21
g22
sg16
I0
sS'trials_4.thisN'
p1720
I82
sS'trials_4.thisTrialN'
p1721
I2
sa(dp1722
g29
g30
sg14
I1
sg31
g32
sS'trials_4.thisRepN'
p1723
I20
sg23
g27
sS'trials_4.thisIndex'
p1724
g24
(g60
S'\x03\x00\x00\x00\x00\x00\x00\x00'
tRp1725
sg17
(lp1726
F0.35878300666809082
asg1046
g1084
sg1048
g1085
sg15
(lp1727
S'4'
asg1051
g1087
sg28
g11
sg1053
g1054
sg21
g22
sg16
I0
sS'trials_4.thisN'
p1728
I83
sS'trials_4.thisTrialN'
p1729
I3
sa(dp1730
g29
g30
sg14
I1
sg31
g32
sS'trials_4.thisRepN'
p1731
I21
sg23
g27
sS'trials_4.thisIndex'
p1732
g24
(g60
S'\x03\x00\x00\x00\x00\x00\x00\x00'
tRp1733
sg17
(lp1734
F0.4776301383972168
asg1046
g1084
sg1048
g1085
sg15
(lp1735
S'4'
asg1051
g1087
sg28
g11
sg1053
g1054
sg21
g22
sg16
I0
sS'trials_4.thisN'
p1736
I84
sS'trials_4.thisTrialN'
p1737
I0
sa(dp1738
g29
g30
sg14
I1
sg31
g32
sS'trials_4.thisRepN'
p1739
I21
sg23
g27
sS'trials_4.thisIndex'
p1740
g24
(g60
S'\x01\x00\x00\x00\x00\x00\x00\x00'
tRp1741
sg17
(lp1742
F0.37666583061218262
asg1046
g1047
sg1048
g1049
sg15
(lp1743
S'2'
asg1051
g1052
sg28
g11
sg1053
g1054
sg21
g22
sg16
I0
sS'trials_4.thisN'
p1744
I85
sS'trials_4.thisTrialN'
p1745
I1
sa(dp1746
g29
g30
sg14
I1
sg31
g32
sS'trials_4.thisRepN'
p1747
I21
sg23
g27
sS'trials_4.thisIndex'
p1748
g24
(g60
S'\x00\x00\x00\x00\x00\x00\x00\x00'
tRp1749
sg17
(lp1750
F0.41028809547424316
asg1046
g1062
sg1048
g1063
sg15
(lp1751
S'1'
asg1051
g1065
sg28
g11
sg1053
g1054
sg21
g22
sg16
I0
sS'trials_4.thisN'
p1752
I86
sS'trials_4.thisTrialN'
p1753
I2
sa(dp1754
g29
g30
sg14
I1
sg31
g32
sS'trials_4.thisRepN'
p1755
I21
sg23
g27
sS'trials_4.thisIndex'
p1756
g24
(g60
S'\x02\x00\x00\x00\x00\x00\x00\x00'
tRp1757
sg17
(lp1758
F0.3271338939666748
asg1046
g1073
sg1048
g1074
sg15
(lp1759
S'3'
asg1051
g1076
sg28
g11
sg1053
g1054
sg21
g22
sg16
I0
sS'trials_4.thisN'
p1760
I87
sS'trials_4.thisTrialN'
p1761
I3
sa(dp1762
g29
g30
sg14
I1
sg31
g32
sS'trials_4.thisRepN'
p1763
I22
sg23
g27
sS'trials_4.thisIndex'
p1764
g24
(g60
S'\x03\x00\x00\x00\x00\x00\x00\x00'
tRp1765
sg17
(lp1766
F0.5952458381652832
asg1046
g1084
sg1048
g1085
sg15
(lp1767
S'4'
asg1051
g1087
sg28
g11
sg1053
g1054
sg21
g22
sg16
I0
sS'trials_4.thisN'
p1768
I88
sS'trials_4.thisTrialN'
p1769
I0
sa(dp1770
g29
g30
sg14
I1
sg31
g32
sS'trials_4.thisRepN'
p1771
I22
sg23
g27
sS'trials_4.thisIndex'
p1772
g24
(g60
S'\x01\x00\x00\x00\x00\x00\x00\x00'
tRp1773
sg17
(lp1774
F0.325714111328125
asg1046
g1047
sg1048
g1049
sg15
(lp1775
S'2'
asg1051
g1052
sg28
g11
sg1053
g1054
sg21
g22
sg16
I0
sS'trials_4.thisN'
p1776
I89
sS'trials_4.thisTrialN'
p1777
I1
sa(dp1778
g29
g30
sg14
I1
sg31
g32
sS'trials_4.thisRepN'
p1779
I22
sg23
g27
sS'trials_4.thisIndex'
p1780
g24
(g60
S'\x00\x00\x00\x00\x00\x00\x00\x00'
tRp1781
sg17
(lp1782
F0.52872610092163086
asg1046
g1062
sg1048
g1063
sg15
(lp1783
S'1'
asg1051
g1065
sg28
g11
sg1053
g1054
sg21
g22
sg16
I0
sS'trials_4.thisN'
p1784
I90
sS'trials_4.thisTrialN'
p1785
I2
sa(dp1786
g29
g30
sg14
I1
sg31
g32
sS'trials_4.thisRepN'
p1787
I22
sg23
g27
sS'trials_4.thisIndex'
p1788
g24
(g60
S'\x02\x00\x00\x00\x00\x00\x00\x00'
tRp1789
sg17
(lp1790
F0.41285610198974609
asg1046
g1073
sg1048
g1074
sg15
(lp1791
S'3'
asg1051
g1076
sg28
g11
sg1053
g1054
sg21
g22
sg16
I0
sS'trials_4.thisN'
p1792
I91
sS'trials_4.thisTrialN'
p1793
I3
sa(dp1794
g29
g30
sg14
I1
sg31
g32
sS'trials_4.thisRepN'
p1795
I23
sg23
g27
sS'trials_4.thisIndex'
p1796
g24
(g60
S'\x02\x00\x00\x00\x00\x00\x00\x00'
tRp1797
sg17
(lp1798
F0.4795680046081543
asg1046
g1073
sg1048
g1074
sg15
(lp1799
S'3'
asg1051
g1076
sg28
g11
sg1053
g1054
sg21
g22
sg16
I0
sS'trials_4.thisN'
p1800
I92
sS'trials_4.thisTrialN'
p1801
I0
sa(dp1802
g29
g30
sg14
I1
sg31
g32
sS'trials_4.thisRepN'
p1803
I23
sg23
g27
sS'trials_4.thisIndex'
p1804
g24
(g60
S'\x01\x00\x00\x00\x00\x00\x00\x00'
tRp1805
sg17
(lp1806
F0.44684100151062012
asg1046
g1047
sg1048
g1049
sg15
(lp1807
S'2'
asg1051
g1052
sg28
g11
sg1053
g1054
sg21
g22
sg16
I0
sS'trials_4.thisN'
p1808
I93
sS'trials_4.thisTrialN'
p1809
I1
sa(dp1810
g29
g30
sg14
I1
sg31
g32
sS'trials_4.thisRepN'
p1811
I23
sg23
g27
sS'trials_4.thisIndex'
p1812
g24
(g60
S'\x00\x00\x00\x00\x00\x00\x00\x00'
tRp1813
sg17
(lp1814
F0.66405391693115234
asg1046
g1062
sg1048
g1063
sg15
(lp1815
S'1'
asg1051
g1065
sg28
g11
sg1053
g1054
sg21
g22
sg16
I0
sS'trials_4.thisN'
p1816
I94
sS'trials_4.thisTrialN'
p1817
I2
sa(dp1818
g29
g30
sg14
I1
sg31
g32
sS'trials_4.thisRepN'
p1819
I23
sg23
g27
sS'trials_4.thisIndex'
p1820
g24
(g60
S'\x03\x00\x00\x00\x00\x00\x00\x00'
tRp1821
sg17
(lp1822
F0.66297388076782227
asg1046
g1084
sg1048
g1085
sg15
(lp1823
S'4'
asg1051
g1087
sg28
g11
sg1053
g1054
sg21
g22
sg16
I0
sS'trials_4.thisN'
p1824
I95
sS'trials_4.thisTrialN'
p1825
I3
sa(dp1826
g29
g30
sg14
I1
sg31
g32
sS'trials_4.thisRepN'
p1827
I24
sg23
g27
sS'trials_4.thisIndex'
p1828
g24
(g60
S'\x03\x00\x00\x00\x00\x00\x00\x00'
tRp1829
sg17
(lp1830
F0.58616900444030762
asg1046
g1084
sg1048
g1085
sg15
(lp1831
S'4'
asg1051
g1087
sg28
g11
sg1053
g1054
sg21
g22
sg16
I0
sS'trials_4.thisN'
p1832
I96
sS'trials_4.thisTrialN'
p1833
I0
sa(dp1834
g29
g30
sg14
I1
sg31
g32
sS'trials_4.thisRepN'
p1835
I24
sg23
g27
sS'trials_4.thisIndex'
p1836
g24
(g60
S'\x02\x00\x00\x00\x00\x00\x00\x00'
tRp1837
sg17
(lp1838
F0.61437892913818359
asg1046
g1073
sg1048
g1074
sg15
(lp1839
S'3'
asg1051
g1076
sg28
g11
sg1053
g1054
sg21
g22
sg16
I0
sS'trials_4.thisN'
p1840
I97
sS'trials_4.thisTrialN'
p1841
I1
sa(dp1842
g29
g30
sg14
I1
sg31
g32
sS'trials_4.thisRepN'
p1843
I24
sg23
g27
sS'trials_4.thisIndex'
p1844
g24
(g60
S'\x01\x00\x00\x00\x00\x00\x00\x00'
tRp1845
sg17
(lp1846
F0.51511192321777344
asg1046
g1047
sg1048
g1049
sg15
(lp1847
S'2'
asg1051
g1052
sg28
g11
sg1053
g1054
sg21
g22
sg16
I0
sS'trials_4.thisN'
p1848
I98
sS'trials_4.thisTrialN'
p1849
I2
sa(dp1850
g29
g30
sg14
I1
sg31
g32
sS'trials_4.thisRepN'
p1851
I24
sg23
g27
sS'trials_4.thisIndex'
p1852
g24
(g60
S'\x00\x00\x00\x00\x00\x00\x00\x00'
tRp1853
sg17
(lp1854
F0.44723677635192871
asg1046
g1062
sg1048
g1063
sg15
(lp1855
S'1'
asg1051
g1065
sg28
g11
sg1053
g1054
sg21
g22
sg16
I0
sS'trials_4.thisN'
p1856
I99
sS'trials_4.thisTrialN'
p1857
I3
sasS'loops'
p1858
(lp1859
g1
(cpsychopy.data
TrialHandler
p1860
g3
NtRp1861
(dp1862
S'origin'
p1863
NsS'thisTrial'
p1864
(lp1865
sS'_exp'
p1866
I4597255312
sg10
S'trials'
p1867
sg6
I-1
sS'thisRepN'
p1868
I1
sg18
I01
sg19
g20
sS'data'
p1869
g1
(cpsychopy.data
DataHandler
p1870
c__builtin__
dict
p1871
(dp1872
S'ran'
p1873
cnumpy.ma.core
_mareconstruct
p1874
(cnumpy.ma.core
MaskedArray
p1875
cnumpy
ndarray
p1876
(I0
tp1877
S'b'
tRp1878
(I1
(I1
I1
tg25
(S'f4'
I0
I1
tRp1879
(I3
S'<'
NNNI-1
I-1
I0
tbI00
S'\x00\x00\x80?'
S'\x00'
NtbsS'order'
p1880
g1874
(g1875
g1876
g1877
S'b'
tRp1881
(I1
(I1
I1
tg1879
I00
S'\x00\x00\x00\x00'
S'\x00'
NtbstRp1882
(dp1883
S'isNumeric'
p1884
(dp1885
g1873
I01
sg1880
I01
ssg1867
g1861
sS'dataTypes'
p1886
(lp1887
g1873
ag1880
asS'dataShape'
p1888
(lp1889
I1
aI1
asbsS'method'
p1890
S'sequential'
p1891
sS'sequenceIndices'
p1892
cnumpy.core.multiarray
_reconstruct
p1893
(g1876
(I0
tS'b'
tRp1894
(I1
(I1
I1
tg60
I00
S'\x00\x00\x00\x00\x00\x00\x00\x00'
tbsS'finished'
p1895
I01
sS'nReps'
p1896
I1
sS'nRemaining'
p1897
I-1
sS'trialList'
p1898
(lp1899
g1
(cpsychopy.data
TrialType
p1900
g1871
(dp1901
S'pawPatrol1'
p1902
Vmin1.png
p1903
sS'pawPatrol2'
p1904
Vmin2.png
p1905
sS'pawPatrol3'
p1906
Vmin3.png
p1907
sS'pawPatrol4'
p1908
Vmin4.png
p1909
sS'blank'
p1910
VallBlank.png
p1911
stRp1912
asS'seed'
p1913
NsS'thisIndex'
p1914
g24
(g60
S'\x00\x00\x00\x00\x00\x00\x00\x00'
tRp1915
sS'thisN'
p1916
I1
sS'thisTrialN'
p1917
I0
sS'nTotal'
p1918
I1
sbag1
(g1860
g3
NtRp1919
(dp1920
g1863
Nsg1864
(lp1921
sg1866
I4597255312
sg10
S'trials_2'
p1922
sg6
I-1
sg1868
I25
sg18
I01
sg19
g20
sg1869
g1
(g1870
g1871
(dp1923
g14
g1874
(g1875
g1876
g1877
S'b'
tRp1924
(I1
(I4
I25
tg1879
I00
S'\x00\x00\x80?\x00\x00\x80?\x00\x00\x80?\x00\x00\x80?\x00\x00\x80?\x00\x00\x80?\x00\x00\x80?\x00\x00\x80?\x00\x00\x80?\x00\x00\x00\x00\x00\x00\x00\x00\x00\x00\x00\x00\x00\x00\x80?\x00\x00\x80?\x00\x00\x00\x00\x00\x00\x00\x00\x00\x00\x80?\x00\x00\x80?\x00\x00\x80?\x00\x00\x80?\x00\x00\x80?\x00\x00\x00\x00\x00\x00\x80?\x00\x00\x80?\x00\x00\x80?\x00\x00\x80?\x00\x00\x80?\x00\x00\x80?\x00\x00\x80?\x00\x00\x80?\x00\x00\x80?\x00\x00\x80?\x00\x00\x80?\x00\x00\x80?\x00\x00\x80?\x00\x00\x80?\x00\x00\x80?\x00\x00\x80?\x00\x00\x80?\x00\x00\x80?\x00\x00\x80?\x00\x00\x80?\x00\x00\x80?\x00\x00\x80?\x00\x00\x80?\x00\x00\x80?\x00\x00\x00\x00\x00\x00\x80?\x00\x00\x00\x00\x00\x00\x80?\x00\x00\x80?\x00\x00\x80?\x00\x00\x80?\x00\x00\x00\x00\x00\x00\x80?\x00\x00\x00\x00\x00\x00\x80?\x00\x00\x80?\x00\x00\x80?\x00\x00\x80?\x00\x00\x80?\x00\x00\x80?\x00\x00\x80?\x00\x00\x00\x00\x00\x00\x80?\x00\x00\x80?\x00\x00\x80?\x00\x00\x80?\x00\x00\x80?\x00\x00\x80?\x00\x00\x80?\x00\x00\x80?\x00\x00\x80?\x00\x00\x80?\x00\x00\x80?\x00\x00\x80?\x00\x00\x80?\x00\x00\x80?\x00\x00\x80?\x00\x00\x80?\x00\x00\x80?\x00\x00\x80?\x00\x00\x80?\x00\x00\x80?\x00\x00\x80?\x00\x00\x80?\x00\x00\x80?\x00\x00\x80?\x00\x00\x80?\x00\x00\x80?\x00\x00\x80?\x00\x00\x80?\x00\x00\x80?\x00\x00\x80?\x00\x00\x80?\x00\x00\x80?\x00\x00\x80?\x00\x00\x80?\x00\x00\x80?\x00\x00\x80?'
S'\x00\x00\x00\x00\x00\x00\x00\x00\x00\x00\x00\x00\x00\x00\x00\x00\x00\x00\x00\x00\x00\x00\x00\x00\x00\x00\x00\x00\x00\x00\x00\x00\x00\x00\x00\x00\x00\x00\x00\x00\x00\x00\x00\x00\x00\x00\x00\x00\x00\x00\x00\x00\x00\x00\x00\x00\x00\x00\x00\x00\x00\x00\x00\x00\x00\x00\x00\x00\x00\x00\x00\x00\x00\x00\x00\x00\x00\x00\x00\x00\x00\x00\x00\x00\x00\x00\x00\x00\x00\x00\x00\x00\x00\x00\x00\x00\x00\x00\x00\x00'
Ntbsg1873
g1874
(g1875
g1876
g1877
S'b'
tRp1925
(I1
(I4
I25
tg1879
I00
S'\x00\x00\x80?\x00\x00\x80?\x00\x00\x80?\x00\x00\x80?\x00\x00\x80?\x00\x00\x80?\x00\x00\x80?\x00\x00\x80?\x00\x00\x80?\x00\x00\x80?\x00\x00\x80?\x00\x00\x80?\x00\x00\x80?\x00\x00\x80?\x00\x00\x80?\x00\x00\x80?\x00\x00\x80?\x00\x00\x80?\x00\x00\x80?\x00\x00\x80?\x00\x00\x80?\x00\x00\x80?\x00\x00\x80?\x00\x00\x80?\x00\x00\x80?\x00\x00\x80?\x00\x00\x80?\x00\x00\x80?\x00\x00\x80?\x00\x00\x80?\x00\x00\x80?\x00\x00\x80?\x00\x00\x80?\x00\x00\x80?\x00\x00\x80?\x00\x00\x80?\x00\x00\x80?\x00\x00\x80?\x00\x00\x80?\x00\x00\x80?\x00\x00\x80?\x00\x00\x80?\x00\x00\x80?\x00\x00\x80?\x00\x00\x80?\x00\x00\x80?\x00\x00\x80?\x00\x00\x80?\x00\x00\x80?\x00\x00\x80?\x00\x00\x80?\x00\x00\x80?\x00\x00\x80?\x00\x00\x80?\x00\x00\x80?\x00\x00\x80?\x00\x00\x80?\x00\x00\x80?\x00\x00\x80?\x00\x00\x80?\x00\x00\x80?\x00\x00\x80?\x00\x00\x80?\x00\x00\x80?\x00\x00\x80?\x00\x00\x80?\x00\x00\x80?\x00\x00\x80?\x00\x00\x80?\x00\x00\x80?\x00\x00\x80?\x00\x00\x80?\x00\x00\x80?\x00\x00\x80?\x00\x00\x80?\x00\x00\x80?\x00\x00\x80?\x00\x00\x80?\x00\x00\x80?\x00\x00\x80?\x00\x00\x80?\x00\x00\x80?\x00\x00\x80?\x00\x00\x80?\x00\x00\x80?\x00\x00\x80?\x00\x00\x80?\x00\x00\x80?\x00\x00\x80?\x00\x00\x80?\x00\x00\x80?\x00\x00\x80?\x00\x00\x80?\x00\x00\x80?\x00\x00\x80?\x00\x00\x80?\x00\x00\x80?\x00\x00\x80?\x00\x00\x80?\x00\x00\x80?'
S'\x00\x00\x00\x00\x00\x00\x00\x00\x00\x00\x00\x00\x00\x00\x00\x00\x00\x00\x00\x00\x00\x00\x00\x00\x00\x00\x00\x00\x00\x00\x00\x00\x00\x00\x00\x00\x00\x00\x00\x00\x00\x00\x00\x00\x00\x00\x00\x00\x00\x00\x00\x00\x00\x00\x00\x00\x00\x00\x00\x00\x00\x00\x00\x00\x00\x00\x00\x00\x00\x00\x00\x00\x00\x00\x00\x00\x00\x00\x00\x00\x00\x00\x00\x00\x00\x00\x00\x00\x00\x00\x00\x00\x00\x00\x00\x00\x00\x00\x00\x00'
Ntbsg16
g1874
(g1875
g1876
g1877
S'b'
tRp1926
(I1
(I4
I25
tg1879
I00
S'\x00\x00\x00\x00\x00\x00\x00\x00\x00\x00\x00\x00\x00\x00\x00\x00\x00\x00\x00\x00\x00\x00\x00\x00\x00\x00\x00\x00\x00\x00\x00\x00\x00\x00\x00\x00\x00\x00\x00\x00\x00\x00\x00\x00\x00\x00\x00\x00\x00\x00\x00\x00\x00\x00\x00\x00\x00\x00\x00\x00\x00\x00\x00\x00\x00\x00\x00\x00\x00\x00\x00\x00\x00\x00\x00\x00\x00\x00\x00\x00\x00\x00\x00\x00\x00\x00\x00\x00\x00\x00\x00\x00\x00\x00\x00\x00\x00\x00\x00\x00\x00\x00\x00\x00\x00\x00\x00\x00\x00\x00\x00\x00\x00\x00\x00\x00\x00\x00\x00\x00\x00\x00\x00\x00\x00\x00\x00\x00\x00\x00\x00\x00\x00\x00\x00\x00\x00\x00\x00\x00\x00\x00\x00\x00\x00\x00\x00\x00\x00\x00\x00\x00\x00\x00\x00\x00\x00\x00\x00\x00\x00\x00\x00\x00\x00\x00\x00\x00\x00\x00\x00\x00\x00\x00\x00\x00\x00\x00\x00\x00\x00\x00\x00\x00\x00\x00\x00\x00\x00\x00\x00\x00\x00\x00\x00\x00\x00\x00\x00\x00\x00\x00\x00\x00\x00\x00\x00\x00\x00\x00\x00\x00\x00\x00\x00\x00\x00\x00\x00\x00\x00\x00\x00\x00\x00\x00\x00\x00\x00\x00\x00\x00\x00\x00\x00\x00\x00\x00\x00\x00\x00\x00\x00\x00\x00\x00\x00\x00\x00\x00\x00\x00\x00\x00\x00\x00\x00\x00\x00\x00\x00\x00\x00\x00\x00\x00\x00\x00\x00\x00\x00\x00\x00\x00\x00\x00\x00\x00\x00\x00\x00\x00\x00\x00\x00\x00\x00\x00\x00\x00\x00\x00\x00\x00\x00\x00\x00\x00\x00\x00\x00\x00\x00\x00\x00\x00\x00\x00\x00\x00\x00\x00\x00\x00\x00\x00\x00\x00\x00\x00\x00\x00\x00\x00\x00\x00\x00\x00\x00\x00\x00\x00\x00\x00\x00\x00\x00\x00\x00\x00\x00\x00\x00\x00\x00\x00\x00\x00\x00\x00\x00\x00\x00\x00\x00\x00\x00\x00\x00\x00\x00\x00\x00\x00\x00\x00\x00\x00\x00\x00\x00\x00\x00\x00\x00\x00\x00\x00\x00\x00\x00\x00\x00\x00\x00\x00\x00\x00\x00\x00\x00\x00\x00\x00\x00\x00\x00\x00\x00\x00'
S'\x00\x00\x00\x00\x00\x00\x00\x00\x00\x00\x00\x00\x00\x00\x00\x00\x00\x00\x00\x00\x00\x00\x00\x00\x00\x00\x00\x00\x00\x00\x00\x00\x00\x00\x00\x00\x00\x00\x00\x00\x00\x00\x00\x00\x00\x00\x00\x00\x00\x00\x00\x00\x00\x00\x00\x00\x00\x00\x00\x00\x00\x00\x00\x00\x00\x00\x00\x00\x00\x00\x00\x00\x00\x00\x00\x00\x00\x00\x00\x00\x00\x00\x00\x00\x00\x00\x00\x00\x00\x00\x00\x00\x00\x00\x00\x00\x00\x00\x00\x00'
Ntbsg17
g1893
(g1876
(I0
tS'b'
tRp1927
(I1
(I4
I25
tg25
(S'O8'
I0
I1
tRp1928
(I3
S'|'
NNNI-1
I-1
I63
tbI00
(lp1929
(lp1930
F0.48395705223083496
aa(lp1931
F0.4094240665435791
aa(lp1932
F0.34371209144592285
aa(lp1933
F0.27898001670837402
aa(lp1934
F0.32990717887878418
aa(lp1935
F0.39713883399963379
aa(lp1936
F0.4537971019744873
aa(lp1937
F0.40303397178649902
aa(lp1938
F0.42080092430114746
aa(lp1939
F0.16869902610778809
aF0.46976208686828613
aa(lp1940
F0.18689584732055664
aF0.54240989685058594
aF0.79279184341430664
aa(lp1941
F0.29336118698120117
aF0.59333205223083496
aa(lp1942
F0.31099700927734375
aa(lp1943
F0.36176800727844238
aa(lp1944
F0.1864168643951416
aF0.47009086608886719
aa(lp1945
F0.24735593795776367
aF0.58078694343566895
aa(lp1946
F0.36934185028076172
aa(lp1947
F0.33550500869750977
aa(lp1948
F0.35474085807800293
aa(lp1949
F0.35703897476196289
aa(lp1950
F0.27618503570556641
aa(lp1951
F0.26022195816040039
aF0.57684898376464844
aa(lp1952
F0.36205291748046875
aa(lp1953
F0.52738809585571289
aa(lp1954
F0.41977405548095703
aa(lp1955
F0.56798601150512695
aa(lp1956
F0.39007806777954102
aa(lp1957
F0.21025204658508301
aa(lp1958
F0.24632000923156738
aa(lp1959
F0.29399418830871582
aa(lp1960
F0.23030996322631836
aa(lp1961
F0.73667716979980469
aa(lp1962
F0.28676700592041016
aa(lp1963
F0.25237107276916504
aa(lp1964
F0.30239176750183105
aa(lp1965
F0.2710719108581543
aa(lp1966
F0.2104649543762207
aa(lp1967
F0.19405889511108398
aa(lp1968
F0.52660799026489258
aa(lp1969
F0.28018903732299805
aa(lp1970
F0.27017402648925781
aa(lp1971
F0.30230593681335449
aa(lp1972
F0.2536931037902832
aa(lp1973
F0.32024097442626953
aa(lp1974
F0.4023590087890625
aa(lp1975
F0.34195184707641602
aa(lp1976
F0.17748594284057617
aF0.54302692413330078
aa(lp1977
F0.24417495727539062
aa(lp1978
F0.39612007141113281
aF0.77942609786987305
aa(lp1979
F0.24772095680236816
aa(lp1980
F0.30082893371582031
aa(lp1981
F0.26115202903747559
aa(lp1982
F0.26055598258972168
aa(lp1983
F0.34416580200195312
aF0.67853879928588867
aa(lp1984
F0.24546504020690918
aa(lp1985
F0.18638086318969727
aF0.60369086265563965
aa(lp1986
F0.2506258487701416
aa(lp1987
F0.46971893310546875
aa(lp1988
F0.21985101699829102
aa(lp1989
F0.52247095108032227
aa(lp1990
F0.28587889671325684
aa(lp1991
F0.26000785827636719
aa(lp1992
F0.27918791770935059
aa(lp1993
F0.2284390926361084
aF0.56209611892700195
aa(lp1994
F0.40197300910949707
aa(lp1995
F0.26920795440673828
aa(lp1996
F0.41763901710510254
aa(lp1997
F0.25318002700805664
aa(lp1998
F0.38837981224060059
aa(lp1999
F0.42255210876464844
aa(lp2000
F0.3186650276184082
aa(lp2001
F0.24268412590026855
aa(lp2002
F0.26027393341064453
aa(lp2003
F0.25305604934692383
aa(lp2004
F0.44723677635192871
aa(lp2005
F0.32522702217102051
aa(lp2006
F0.26038885116577148
aa(lp2007
F0.1615440845489502
aa(lp2008
F0.32755184173583984
aa(lp2009
F0.29777097702026367
aa(lp2010
F0.33720302581787109
aa(lp2011
F0.25306105613708496
aa(lp2012
F0.30299687385559082
aa(lp2013
F0.23794889450073242
aa(lp2014
F0.33970212936401367
aa(lp2015
F0.33580493927001953
aa(lp2016
F0.36008191108703613
aa(lp2017
F0.21030187606811523
aa(lp2018
F0.32909202575683594
aa(lp2019
F0.32936286926269531
aa(lp2020
F0.43638396263122559
aa(lp2021
F0.32057714462280273
aa(lp2022
F0.254608154296875
aa(lp2023
F0.32201910018920898
aa(lp2024
F0.2859649658203125
aa(lp2025
F0.3527829647064209
aa(lp2026
F0.27794718742370605
aa(lp2027
F0.32854890823364258
aa(lp2028
F0.39587712287902832
aa(lp2029
F0.3471369743347168
aatbsg1880
g1874
(g1875
g1876
g1877
S'b'
tRp2030
(I1
(I4
I25
tg1879
I00
S'\x00\x00\x80?\x00\x00\x80@\x00\x00\x00A\x00\x00`A\x00\x00\x90A\x00\x00\xb8A\x00\x00\xc0A\x00\x00\xf8A\x00\x00\x00B\x00\x00\x1cB\x00\x00,B\x00\x004B\x00\x00DB\x00\x00XB\x00\x00lB\x00\x00pB\x00\x00\x80B\x00\x00\x88B\x00\x00\x92B\x00\x00\x9aB\x00\x00\xa6B\x00\x00\xaaB\x00\x00\xb0B\x00\x00\xbcB\x00\x00\xc4B\x00\x00\x00\x00\x00\x00\xa0@\x00\x00 A\x00\x00PA\x00\x00\x80A\x00\x00\xa0A\x00\x00\xc8A\x00\x00\xe0A\x00\x00\x04B\x00\x00\x18B\x00\x00$B\x00\x00<B\x00\x00LB\x00\x00TB\x00\x00`B\x00\x00xB\x00\x00\x86B\x00\x00\x8cB\x00\x00\x90B\x00\x00\x9cB\x00\x00\xa4B\x00\x00\xacB\x00\x00\xb6B\x00\x00\xb8B\x00\x00\xc2B\x00\x00\x00@\x00\x00\xc0@\x00\x00\x10A\x00\x00@A\x00\x00\x98A\x00\x00\xa8A\x00\x00\xd0A\x00\x00\xf0A\x00\x00\x08B\x00\x00\x10B\x00\x00(B\x00\x008B\x00\x00HB\x00\x00PB\x00\x00hB\x00\x00|B\x00\x00\x82B\x00\x00\x8aB\x00\x00\x96B\x00\x00\x98B\x00\x00\xa2B\x00\x00\xa8B\x00\x00\xb2B\x00\x00\xbeB\x00\x00\xc6B\x00\x00@@\x00\x00\xe0@\x00\x000A\x00\x00pA\x00\x00\x88A\x00\x00\xb0A\x00\x00\xd8A\x00\x00\xe8A\x00\x00\x0cB\x00\x00\x14B\x00\x00 B\x00\x000B\x00\x00@B\x00\x00\\B\x00\x00dB\x00\x00tB\x00\x00\x84B\x00\x00\x8eB\x00\x00\x94B\x00\x00\x9eB\x00\x00\xa0B\x00\x00\xaeB\x00\x00\xb4B\x00\x00\xbaB\x00\x00\xc0B'
S'\x00\x00\x00\x00\x00\x00\x00\x00\x00\x00\x00\x00\x00\x00\x00\x00\x00\x00\x00\x00\x00\x00\x00\x00\x00\x00\x00\x00\x00\x00\x00\x00\x00\x00\x00\x00\x00\x00\x00\x00\x00\x00\x00\x00\x00\x00\x00\x00\x00\x00\x00\x00\x00\x00\x00\x00\x00\x00\x00\x00\x00\x00\x00\x00\x00\x00\x00\x00\x00\x00\x00\x00\x00\x00\x00\x00\x00\x00\x00\x00\x00\x00\x00\x00\x00\x00\x00\x00\x00\x00\x00\x00\x00\x00\x00\x00\x00\x00\x00\x00'
Ntbsg15
g1893
(g1876
(I0
tS'b'
tRp2031
(I1
(I4
I25
tg1928
I00
(lp2032
(lp2033
S'1'
aa(lp2034
S'1'
aa(lp2035
S'1'
aa(lp2036
S'1'
aa(lp2037
S'1'
aa(lp2038
S'1'
aa(lp2039
S'1'
aa(lp2040
S'1'
aa(lp2041
S'1'
aa(lp2042
S'3'
aS'1'
aa(lp2043
S'4'
aS'2'
aS'1'
aa(lp2044
S'2'
aS'1'
aa(lp2045
S'1'
aa(lp2046
S'1'
aa(lp2047
S'2'
aS'1'
aa(lp2048
S'2'
aS'1'
aa(lp2049
S'1'
aa(lp2050
S'1'
aa(lp2051
S'1'
aa(lp2052
S'1'
aa(lp2053
S'1'
aa(lp2054
S'2'
aS'1'
aa(lp2055
S'1'
aa(lp2056
S'1'
aa(lp2057
S'1'
aa(lp2058
S'2'
aa(lp2059
S'2'
aa(lp2060
S'2'
aa(lp2061
S'2'
aa(lp2062
S'2'
aa(lp2063
S'2'
aa(lp2064
S'2'
aa(lp2065
S'2'
aa(lp2066
S'2'
aa(lp2067
S'2'
aa(lp2068
S'2'
aa(lp2069
S'2'
aa(lp2070
S'2'
aa(lp2071
S'2'
aa(lp2072
S'2'
aa(lp2073
S'2'
aa(lp2074
S'2'
aa(lp2075
S'2'
aa(lp2076
S'2'
aa(lp2077
S'2'
aa(lp2078
S'2'
aa(lp2079
S'4'
aS'2'
aa(lp2080
S'2'
aa(lp2081
S'1'
aS'2'
aa(lp2082
S'2'
aa(lp2083
S'3'
aa(lp2084
S'3'
aa(lp2085
S'3'
aa(lp2086
S'2'
aS'3'
aa(lp2087
S'3'
aa(lp2088
S'4'
aS'3'
aa(lp2089
S'3'
aa(lp2090
S'3'
aa(lp2091
S'3'
aa(lp2092
S'3'
aa(lp2093
S'3'
aa(lp2094
S'3'
aa(lp2095
S'3'
aa(lp2096
S'4'
aS'3'
aa(lp2097
S'3'
aa(lp2098
S'3'
aa(lp2099
S'3'
aa(lp2100
S'3'
aa(lp2101
S'3'
aa(lp2102
S'3'
aa(lp2103
S'3'
aa(lp2104
S'3'
aa(lp2105
S'3'
aa(lp2106
S'3'
aa(lp2107
S'1'
aa(lp2108
S'4'
aa(lp2109
S'4'
aa(lp2110
S'4'
aa(lp2111
S'4'
aa(lp2112
S'4'
aa(lp2113
S'4'
aa(lp2114
S'4'
aa(lp2115
S'4'
aa(lp2116
S'4'
aa(lp2117
S'4'
aa(lp2118
S'4'
aa(lp2119
S'4'
aa(lp2120
S'4'
aa(lp2121
S'4'
aa(lp2122
S'4'
aa(lp2123
S'4'
aa(lp2124
S'4'
aa(lp2125
S'4'
aa(lp2126
S'4'
aa(lp2127
S'4'
aa(lp2128
S'4'
aa(lp2129
S'4'
aa(lp2130
S'4'
aa(lp2131
S'4'
aa(lp2132
S'4'
aatbstRp2133
(dp2134
g1884
(dp2135
g14
I01
sg1873
I01
sg17
I00
sg15
I00
sg16
I01
sg1880
I01
ssg1867
g1919
sg1886
(lp2136
g1873
ag1880
ag14
ag15
ag16
ag17
asg1888
(lp2137
I4
aI25
asbsg1890
S'random'
p2138
sg1892
g1893
(g1876
(I0
tS'b'
tRp2139
(I1
(I4
I25
tg60
I01
S'\x01\x00\x00\x00\x00\x00\x00\x00\x00\x00\x00\x00\x00\x00\x00\x00\x02\x00\x00\x00\x00\x00\x00\x00\x03\x00\x00\x00\x00\x00\x00\x00\x00\x00\x00\x00\x00\x00\x00\x00\x01\x00\x00\x00\x00\x00\x00\x00\x02\x00\x00\x00\x00\x00\x00\x00\x03\x00\x00\x00\x00\x00\x00\x00\x00\x00\x00\x00\x00\x00\x00\x00\x02\x00\x00\x00\x00\x00\x00\x00\x01\x00\x00\x00\x00\x00\x00\x00\x03\x00\x00\x00\x00\x00\x00\x00\x02\x00\x00\x00\x00\x00\x00\x00\x01\x00\x00\x00\x00\x00\x00\x00\x00\x00\x00\x00\x00\x00\x00\x00\x03\x00\x00\x00\x00\x00\x00\x00\x01\x00\x00\x00\x00\x00\x00\x00\x03\x00\x00\x00\x00\x00\x00\x00\x00\x00\x00\x00\x00\x00\x00\x00\x02\x00\x00\x00\x00\x00\x00\x00\x01\x00\x00\x00\x00\x00\x00\x00\x02\x00\x00\x00\x00\x00\x00\x00\x03\x00\x00\x00\x00\x00\x00\x00\x00\x00\x00\x00\x00\x00\x00\x00\x00\x00\x00\x00\x00\x00\x00\x00\x01\x00\x00\x00\x00\x00\x00\x00\x02\x00\x00\x00\x00\x00\x00\x00\x03\x00\x00\x00\x00\x00\x00\x00\x01\x00\x00\x00\x00\x00\x00\x00\x03\x00\x00\x00\x00\x00\x00\x00\x02\x00\x00\x00\x00\x00\x00\x00\x00\x00\x00\x00\x00\x00\x00\x00\x00\x00\x00\x00\x00\x00\x00\x00\x01\x00\x00\x00\x00\x00\x00\x00\x02\x00\x00\x00\x00\x00\x00\x00\x03\x00\x00\x00\x00\x00\x00\x00\x02\x00\x00\x00\x00\x00\x00\x00\x03\x00\x00\x00\x00\x00\x00\x00\x01\x00\x00\x00\x00\x00\x00\x00\x00\x00\x00\x00\x00\x00\x00\x00\x03\x00\x00\x00\x00\x00\x00\x00\x01\x00\x00\x00\x00\x00\x00\x00\x02\x00\x00\x00\x00\x00\x00\x00\x00\x00\x00\x00\x00\x00\x00\x00\x03\x00\x00\x00\x00\x00\x00\x00\x00\x00\x00\x00\x00\x00\x00\x00\x02\x00\x00\x00\x00\x00\x00\x00\x01\x00\x00\x00\x00\x00\x00\x00\x03\x00\x00\x00\x00\x00\x00\x00\x00\x00\x00\x00\x00\x00\x00\x00\x02\x00\x00\x00\x00\x00\x00\x00\x01\x00\x00\x00\x00\x00\x00\x00\x02\x00\x00\x00\x00\x00\x00\x00\x01\x00\x00\x00\x00\x00\x00\x00\x00\x00\x00\x00\x00\x00\x00\x00\x03\x00\x00\x00\x00\x00\x00\x00\x01\x00\x00\x00\x00\x00\x00\x00\x03\x00\x00\x00\x00\x00\x00\x00\x02\x00\x00\x00\x00\x00\x00\x00\x00\x00\x00\x00\x00\x00\x00\x00\x00\x00\x00\x00\x00\x00\x00\x00\x03\x00\x00\x00\x00\x00\x00\x00\x01\x00\x00\x00\x00\x00\x00\x00\x02\x00\x00\x00\x00\x00\x00\x00\x00\x00\x00\x00\x00\x00\x00\x00\x02\x00\x00\x00\x00\x00\x00\x00\x03\x00\x00\x00\x00\x00\x00\x00\x01\x00\x00\x00\x00\x00\x00\x00\x00\x00\x00\x00\x00\x00\x00\x00\x02\x00\x00\x00\x00\x00\x00\x00\x01\x00\x00\x00\x00\x00\x00\x00\x03\x00\x00\x00\x00\x00\x00\x00\x01\x00\x00\x00\x00\x00\x00\x00\x00\x00\x00\x00\x00\x00\x00\x00\x03\x00\x00\x00\x00\x00\x00\x00\x02\x00\x00\x00\x00\x00\x00\x00\x02\x00\x00\x00\x00\x00\x00\x00\x00\x00\x00\x00\x00\x00\x00\x00\x01\x00\x00\x00\x00\x00\x00\x00\x03\x00\x00\x00\x00\x00\x00\x00\x03\x00\x00\x00\x00\x00\x00\x00\x02\x00\x00\x00\x00\x00\x00\x00\x01\x00\x00\x00\x00\x00\x00\x00\x00\x00\x00\x00\x00\x00\x00\x00\x02\x00\x00\x00\x00\x00\x00\x00\x00\x00\x00\x00\x00\x00\x00\x00\x01\x00\x00\x00\x00\x00\x00\x00\x03\x00\x00\x00\x00\x00\x00\x00\x00\x00\x00\x00\x00\x00\x00\x00\x02\x00\x00\x00\x00\x00\x00\x00\x03\x00\x00\x00\x00\x00\x00\x00\x01\x00\x00\x00\x00\x00\x00\x00\x01\x00\x00\x00\x00\x00\x00\x00\x03\x00\x00\x00\x00\x00\x00\x00\x00\x00\x00\x00\x00\x00\x00\x00\x02\x00\x00\x00\x00\x00\x00\x00\x03\x00\x00\x00\x00\x00\x00\x00\x01\x00\x00\x00\x00\x00\x00\x00\x00\x00\x00\x00\x00\x00\x00\x00\x02\x00\x00\x00\x00\x00\x00\x00'
tbsg1895
I01
sg1896
I25
sg1897
I-1
sg1898
(lp2140
g1
(g1900
g1871
(dp2141
g41
g71
sg42
g68
sg43
g69
sg44
g62
stRp2142
ag1
(g1900
g1871
(dp2143
g41
g58
sg42
g55
sg43
g56
sg44
g62
stRp2144
ag1
(g1900
g1871
(dp2145
g41
g82
sg42
g79
sg43
g80
sg44
g62
stRp2146
ag1
(g1900
g1871
(dp2147
g41
g93
sg42
g90
sg43
g91
sg44
g62
stRp2148
asg1913
Nsg1914
g863
sg1916
I100
sg1917
I0
sg1918
I100
sbag1
(g1860
g3
NtRp2149
(dp2150
g1863
Nsg1864
(lp2151
sg1866
I4597255312
sg10
S'trials_3'
p2152
sg6
I-1
sg1868
I10
sg18
I01
sg19
g20
sg1869
g1
(g1870
g1871
(dp2153
g1873
g1874
(g1875
g1876
g1877
S'b'
tRp2154
(I1
(I1
I10
tg1879
I00
S'\x00\x00\x80?\x00\x00\x80?\x00\x00\x80?\x00\x00\x80?\x00\x00\x80?\x00\x00\x80?\x00\x00\x80?\x00\x00\x80?\x00\x00\x80?\x00\x00\x80?'
S'\x00\x00\x00\x00\x00\x00\x00\x00\x00\x00'
Ntbsg1880
g1874
(g1875
g1876
g1877
S'b'
tRp2155
(I1
(I1
I10
tg1879
I00
S'\x00\x00\x00\x00\x00\x00\x80?\x00\x00\x00@\x00\x00@@\x00\x00\x80@\x00\x00\xa0@\x00\x00\xc0@\x00\x00\xe0@\x00\x00\x00A\x00\x00\x10A'
S'\x00\x00\x00\x00\x00\x00\x00\x00\x00\x00'
NtbstRp2156
(dp2157
g1884
(dp2158
g1873
I01
sg1880
I01
ssg1867
g2149
sg1886
(lp2159
g1873
ag1880
asg1888
(lp2160
I1
aI10
asbsg1890
g1891
sg1892
g1893
(g1876
(I0
tS'b'
tRp2161
(I1
(I1
I10
tg60
I00
S'\x00\x00\x00\x00\x00\x00\x00\x00\x00\x00\x00\x00\x00\x00\x00\x00\x00\x00\x00\x00\x00\x00\x00\x00\x00\x00\x00\x00\x00\x00\x00\x00\x00\x00\x00\x00\x00\x00\x00\x00\x00\x00\x00\x00\x00\x00\x00\x00\x00\x00\x00\x00\x00\x00\x00\x00\x00\x00\x00\x00\x00\x00\x00\x00\x00\x00\x00\x00\x00\x00\x00\x00\x00\x00\x00\x00\x00\x00\x00\x00'
tbsg1895
I01
sg1896
I10
sg1897
I-1
sg1898
(lp2162
g1
(g1900
g1871
(dp2163
g45
g867
sg46
g873
sg47
g874
sg48
g875
sg870
g871
stRp2164
asg1913
Nsg1914
g949
sg1916
I10
sg1917
I0
sg1918
I10
sbag1
(g1860
g3
NtRp2165
(dp2166
g1863
Nsg1864
(lp2167
sg1866
I4597255312
sg10
g2152
sg6
I-1
sg1868
I10
sg18
I01
sg19
g20
sg1869
g1
(g1870
g1871
(dp2168
g1873
g1874
(g1875
g1876
g1877
S'b'
tRp2169
(I1
(I1
I10
tg1879
I00
S'\x00\x00\x80?\x00\x00\x80?\x00\x00\x80?\x00\x00\x80?\x00\x00\x80?\x00\x00\x80?\x00\x00\x80?\x00\x00\x80?\x00\x00\x80?\x00\x00\x80?'
S'\x00\x00\x00\x00\x00\x00\x00\x00\x00\x00'
Ntbsg1880
g1874
(g1875
g1876
g1877
S'b'
tRp2170
(I1
(I1
I10
tg1879
I00
S'\x00\x00\x00\x00\x00\x00\x80?\x00\x00\x00@\x00\x00@@\x00\x00\x80@\x00\x00\xa0@\x00\x00\xc0@\x00\x00\xe0@\x00\x00\x00A\x00\x00\x10A'
S'\x00\x00\x00\x00\x00\x00\x00\x00\x00\x00'
NtbstRp2171
(dp2172
g1884
(dp2173
g1873
I01
sg1880
I01
ssg1867
g2165
sg1886
(lp2174
g1873
ag1880
asg1888
(lp2175
I1
aI10
asbsg1890
g1891
sg1892
g1893
(g1876
(I0
tS'b'
tRp2176
(I1
(I1
I10
tg60
I00
S'\x00\x00\x00\x00\x00\x00\x00\x00\x00\x00\x00\x00\x00\x00\x00\x00\x00\x00\x00\x00\x00\x00\x00\x00\x00\x00\x00\x00\x00\x00\x00\x00\x00\x00\x00\x00\x00\x00\x00\x00\x00\x00\x00\x00\x00\x00\x00\x00\x00\x00\x00\x00\x00\x00\x00\x00\x00\x00\x00\x00\x00\x00\x00\x00\x00\x00\x00\x00\x00\x00\x00\x00\x00\x00\x00\x00\x00\x00\x00\x00'
tbsg1895
I01
sg1896
I10
sg1897
I-1
sg1898
(lp2177
g1
(g1900
g1871
(dp2178
g953
g954
sg960
g961
sg962
g963
sg964
g965
sg957
g958
stRp2179
asg1913
Nsg1914
g1039
sg1916
I10
sg1917
I0
sg1918
I10
sbag1
(g1860
g3
NtRp2180
(dp2181
g1863
Nsg1864
(lp2182
sg1866
I4597255312
sg10
S'trials_4'
p2183
sg6
I-1
sg1868
I25
sg18
I01
sg19
g20
sg1869
g1
(g1870
g1871
(dp2184
g1873
g1874
(g1875
g1876
g1877
S'b'
tRp2185
(I1
(I4
I25
tg1879
I00
S'\x00\x00\x80?\x00\x00\x80?\x00\x00\x80?\x00\x00\x80?\x00\x00\x80?\x00\x00\x80?\x00\x00\x80?\x00\x00\x80?\x00\x00\x80?\x00\x00\x80?\x00\x00\x80?\x00\x00\x80?\x00\x00\x80?\x00\x00\x80?\x00\x00\x80?\x00\x00\x80?\x00\x00\x80?\x00\x00\x80?\x00\x00\x80?\x00\x00\x80?\x00\x00\x80?\x00\x00\x80?\x00\x00\x80?\x00\x00\x80?\x00\x00\x80?\x00\x00\x80?\x00\x00\x80?\x00\x00\x80?\x00\x00\x80?\x00\x00\x80?\x00\x00\x80?\x00\x00\x80?\x00\x00\x80?\x00\x00\x80?\x00\x00\x80?\x00\x00\x80?\x00\x00\x80?\x00\x00\x80?\x00\x00\x80?\x00\x00\x80?\x00\x00\x80?\x00\x00\x80?\x00\x00\x80?\x00\x00\x80?\x00\x00\x80?\x00\x00\x80?\x00\x00\x80?\x00\x00\x80?\x00\x00\x80?\x00\x00\x80?\x00\x00\x80?\x00\x00\x80?\x00\x00\x80?\x00\x00\x80?\x00\x00\x80?\x00\x00\x80?\x00\x00\x80?\x00\x00\x80?\x00\x00\x80?\x00\x00\x80?\x00\x00\x80?\x00\x00\x80?\x00\x00\x80?\x00\x00\x80?\x00\x00\x80?\x00\x00\x80?\x00\x00\x80?\x00\x00\x80?\x00\x00\x80?\x00\x00\x80?\x00\x00\x80?\x00\x00\x80?\x00\x00\x80?\x00\x00\x80?\x00\x00\x80?\x00\x00\x80?\x00\x00\x80?\x00\x00\x80?\x00\x00\x80?\x00\x00\x80?\x00\x00\x80?\x00\x00\x80?\x00\x00\x80?\x00\x00\x80?\x00\x00\x80?\x00\x00\x80?\x00\x00\x80?\x00\x00\x80?\x00\x00\x80?\x00\x00\x80?\x00\x00\x80?\x00\x00\x80?\x00\x00\x80?\x00\x00\x80?\x00\x00\x80?\x00\x00\x80?\x00\x00\x80?\x00\x00\x80?\x00\x00\x80?\x00\x00\x80?'
S'\x00\x00\x00\x00\x00\x00\x00\x00\x00\x00\x00\x00\x00\x00\x00\x00\x00\x00\x00\x00\x00\x00\x00\x00\x00\x00\x00\x00\x00\x00\x00\x00\x00\x00\x00\x00\x00\x00\x00\x00\x00\x00\x00\x00\x00\x00\x00\x00\x00\x00\x00\x00\x00\x00\x00\x00\x00\x00\x00\x00\x00\x00\x00\x00\x00\x00\x00\x00\x00\x00\x00\x00\x00\x00\x00\x00\x00\x00\x00\x00\x00\x00\x00\x00\x00\x00\x00\x00\x00\x00\x00\x00\x00\x00\x00\x00\x00\x00\x00\x00'
Ntbsg1880
g1874
(g1875
g1876
g1877
S'b'
tRp2186
(I1
(I4
I25
tg1879
I00
S'\x00\x00\x80?\x00\x00\xe0@\x00\x00\x00A\x00\x00pA\x00\x00\x98A\x00\x00\xb8A\x00\x00\xc0A\x00\x00\xe0A\x00\x00\x04B\x00\x00\x1cB\x00\x00$B\x00\x008B\x00\x00DB\x00\x00PB\x00\x00lB\x00\x00xB\x00\x00\x82B\x00\x00\x8cB\x00\x00\x90B\x00\x00\x98B\x00\x00\xa4B\x00\x00\xacB\x00\x00\xb4B\x00\x00\xbcB\x00\x00\xc6B\x00\x00\x00\x00\x00\x00\xc0@\x00\x000A\x00\x00PA\x00\x00\x80A\x00\x00\xa8A\x00\x00\xd0A\x00\x00\xf0A\x00\x00\x00B\x00\x00\x18B\x00\x00,B\x00\x004B\x00\x00LB\x00\x00TB\x00\x00dB\x00\x00|B\x00\x00\x84B\x00\x00\x8aB\x00\x00\x96B\x00\x00\x9aB\x00\x00\xa0B\x00\x00\xaaB\x00\x00\xb2B\x00\x00\xbaB\x00\x00\xc4B\x00\x00\x00@\x00\x00\xa0@\x00\x00\x10A\x00\x00@A\x00\x00\x88A\x00\x00\xa0A\x00\x00\xc8A\x00\x00\xe8A\x00\x00\x0cB\x00\x00\x10B\x00\x00(B\x00\x000B\x00\x00HB\x00\x00\\B\x00\x00`B\x00\x00tB\x00\x00\x80B\x00\x00\x88B\x00\x00\x94B\x00\x00\x9cB\x00\x00\xa2B\x00\x00\xaeB\x00\x00\xb6B\x00\x00\xb8B\x00\x00\xc2B\x00\x00@@\x00\x00\x80@\x00\x00 A\x00\x00`A\x00\x00\x90A\x00\x00\xb0A\x00\x00\xd8A\x00\x00\xf8A\x00\x00\x08B\x00\x00\x14B\x00\x00 B\x00\x00<B\x00\x00@B\x00\x00XB\x00\x00hB\x00\x00pB\x00\x00\x86B\x00\x00\x8eB\x00\x00\x92B\x00\x00\x9eB\x00\x00\xa6B\x00\x00\xa8B\x00\x00\xb0B\x00\x00\xbeB\x00\x00\xc0B'
S'\x00\x00\x00\x00\x00\x00\x00\x00\x00\x00\x00\x00\x00\x00\x00\x00\x00\x00\x00\x00\x00\x00\x00\x00\x00\x00\x00\x00\x00\x00\x00\x00\x00\x00\x00\x00\x00\x00\x00\x00\x00\x00\x00\x00\x00\x00\x00\x00\x00\x00\x00\x00\x00\x00\x00\x00\x00\x00\x00\x00\x00\x00\x00\x00\x00\x00\x00\x00\x00\x00\x00\x00\x00\x00\x00\x00\x00\x00\x00\x00\x00\x00\x00\x00\x00\x00\x00\x00\x00\x00\x00\x00\x00\x00\x00\x00\x00\x00\x00\x00'
NtbstRp2187
(dp2188
g1884
(dp2189
g1873
I01
sg1880
I01
ssg1867
g2180
sg1886
(lp2190
g1873
ag1880
asg1888
(lp2191
I4
aI25
asbsg1890
g2138
sg1892
g1893
(g1876
(I0
tS'b'
tRp2192
(I1
(I4
I25
tg60
I01
S'\x01\x00\x00\x00\x00\x00\x00\x00\x00\x00\x00\x00\x00\x00\x00\x00\x02\x00\x00\x00\x00\x00\x00\x00\x03\x00\x00\x00\x00\x00\x00\x00\x03\x00\x00\x00\x00\x00\x00\x00\x02\x00\x00\x00\x00\x00\x00\x00\x01\x00\x00\x00\x00\x00\x00\x00\x00\x00\x00\x00\x00\x00\x00\x00\x00\x00\x00\x00\x00\x00\x00\x00\x02\x00\x00\x00\x00\x00\x00\x00\x03\x00\x00\x00\x00\x00\x00\x00\x01\x00\x00\x00\x00\x00\x00\x00\x02\x00\x00\x00\x00\x00\x00\x00\x01\x00\x00\x00\x00\x00\x00\x00\x03\x00\x00\x00\x00\x00\x00\x00\x00\x00\x00\x00\x00\x00\x00\x00\x01\x00\x00\x00\x00\x00\x00\x00\x02\x00\x00\x00\x00\x00\x00\x00\x03\x00\x00\x00\x00\x00\x00\x00\x00\x00\x00\x00\x00\x00\x00\x00\x02\x00\x00\x00\x00\x00\x00\x00\x01\x00\x00\x00\x00\x00\x00\x00\x03\x00\x00\x00\x00\x00\x00\x00\x00\x00\x00\x00\x00\x00\x00\x00\x00\x00\x00\x00\x00\x00\x00\x00\x02\x00\x00\x00\x00\x00\x00\x00\x01\x00\x00\x00\x00\x00\x00\x00\x03\x00\x00\x00\x00\x00\x00\x00\x00\x00\x00\x00\x00\x00\x00\x00\x02\x00\x00\x00\x00\x00\x00\x00\x01\x00\x00\x00\x00\x00\x00\x00\x03\x00\x00\x00\x00\x00\x00\x00\x01\x00\x00\x00\x00\x00\x00\x00\x00\x00\x00\x00\x00\x00\x00\x00\x03\x00\x00\x00\x00\x00\x00\x00\x02\x00\x00\x00\x00\x00\x00\x00\x02\x00\x00\x00\x00\x00\x00\x00\x03\x00\x00\x00\x00\x00\x00\x00\x01\x00\x00\x00\x00\x00\x00\x00\x00\x00\x00\x00\x00\x00\x00\x00\x03\x00\x00\x00\x00\x00\x00\x00\x00\x00\x00\x00\x00\x00\x00\x00\x02\x00\x00\x00\x00\x00\x00\x00\x01\x00\x00\x00\x00\x00\x00\x00\x02\x00\x00\x00\x00\x00\x00\x00\x01\x00\x00\x00\x00\x00\x00\x00\x00\x00\x00\x00\x00\x00\x00\x00\x03\x00\x00\x00\x00\x00\x00\x00\x03\x00\x00\x00\x00\x00\x00\x00\x00\x00\x00\x00\x00\x00\x00\x00\x02\x00\x00\x00\x00\x00\x00\x00\x01\x00\x00\x00\x00\x00\x00\x00\x00\x00\x00\x00\x00\x00\x00\x00\x01\x00\x00\x00\x00\x00\x00\x00\x03\x00\x00\x00\x00\x00\x00\x00\x02\x00\x00\x00\x00\x00\x00\x00\x02\x00\x00\x00\x00\x00\x00\x00\x01\x00\x00\x00\x00\x00\x00\x00\x03\x00\x00\x00\x00\x00\x00\x00\x00\x00\x00\x00\x00\x00\x00\x00\x03\x00\x00\x00\x00\x00\x00\x00\x02\x00\x00\x00\x00\x00\x00\x00\x00\x00\x00\x00\x00\x00\x00\x00\x01\x00\x00\x00\x00\x00\x00\x00\x02\x00\x00\x00\x00\x00\x00\x00\x00\x00\x00\x00\x00\x00\x00\x00\x01\x00\x00\x00\x00\x00\x00\x00\x03\x00\x00\x00\x00\x00\x00\x00\x02\x00\x00\x00\x00\x00\x00\x00\x01\x00\x00\x00\x00\x00\x00\x00\x00\x00\x00\x00\x00\x00\x00\x00\x03\x00\x00\x00\x00\x00\x00\x00\x00\x00\x00\x00\x00\x00\x00\x00\x03\x00\x00\x00\x00\x00\x00\x00\x02\x00\x00\x00\x00\x00\x00\x00\x01\x00\x00\x00\x00\x00\x00\x00\x00\x00\x00\x00\x00\x00\x00\x00\x01\x00\x00\x00\x00\x00\x00\x00\x02\x00\x00\x00\x00\x00\x00\x00\x03\x00\x00\x00\x00\x00\x00\x00\x01\x00\x00\x00\x00\x00\x00\x00\x02\x00\x00\x00\x00\x00\x00\x00\x00\x00\x00\x00\x00\x00\x00\x00\x03\x00\x00\x00\x00\x00\x00\x00\x03\x00\x00\x00\x00\x00\x00\x00\x01\x00\x00\x00\x00\x00\x00\x00\x00\x00\x00\x00\x00\x00\x00\x00\x02\x00\x00\x00\x00\x00\x00\x00\x03\x00\x00\x00\x00\x00\x00\x00\x01\x00\x00\x00\x00\x00\x00\x00\x00\x00\x00\x00\x00\x00\x00\x00\x02\x00\x00\x00\x00\x00\x00\x00\x02\x00\x00\x00\x00\x00\x00\x00\x01\x00\x00\x00\x00\x00\x00\x00\x00\x00\x00\x00\x00\x00\x00\x00\x03\x00\x00\x00\x00\x00\x00\x00\x03\x00\x00\x00\x00\x00\x00\x00\x02\x00\x00\x00\x00\x00\x00\x00\x01\x00\x00\x00\x00\x00\x00\x00\x00\x00\x00\x00\x00\x00\x00\x00'
tbsg1895
I01
sg1896
I25
sg1897
I-1
sg1898
(lp2193
g1
(g1900
g1871
(dp2194
g1051
g1065
sg1046
g1062
sg1048
g1063
sg1053
g1054
stRp2195
ag1
(g1900
g1871
(dp2196
g1051
g1052
sg1046
g1047
sg1048
g1049
sg1053
g1054
stRp2197
ag1
(g1900
g1871
(dp2198
g1051
g1076
sg1046
g1073
sg1048
g1074
sg1053
g1054
stRp2199
ag1
(g1900
g1871
(dp2200
g1051
g1087
sg1046
g1084
sg1048
g1085
sg1053
g1054
stRp2201
asg1913
Nsg1914
g1853
sg1916
I100
sg1917
I0
sg1918
I100
sbasS'savePickle'
p2202
I00
sb.