ccopy_reg
_reconstructor
p1
(cpsychopy.data
ExperimentHandler
p2
c__builtin__
object
p3
NtRp4
(dp5
S'originPath'
p6
NsS'dataFileName'
p7
V/Users/chelseaharmon/Dropbox/danlab/Tasks/motorSequenceLearning/sequenceLearning/data/002_pilot_sequenceLearningTask_2018_Feb_21_1616
p8
sS'runtimeInfo'
p9
NsS'name'
p10
S'sequenceLearningTask'
p11
sS'dataNames'
p12
(lp13
S'trialCorrect'
p14
aS'key_resp_9.keys'
p15
aS'key_resp_9.corr'
p16
aS'key_resp_9.rt'
p17
aS'key_resp_10.keys'
p18
aS'key_resp_10.rt'
p19
asS'autoLog'
p20
I01
sS'extraInfo'
p21
(dp22
S'date'
p23
V2018_Feb_21_1616
p24
sS'frameRate'
p25
cnumpy.core.multiarray
scalar
p26
(cnumpy
dtype
p27
(S'f8'
I0
I1
tRp28
(I3
S'<'
NNNI-1
I-1
I0
tbS'\n\xdd\x8b\x8ao\xe5M@'
tRp29
sS'expName'
p30
g11
sS'session'
p31
S'001'
p32
sS'participant'
p33
V002_pilot
p34
ssS'loopsUnfinished'
p35
(lp36
sS'saveWideText'
p37
I00
sS'thisEntry'
p38
(dp39
sS'version'
p40
S''
sS'_paramNamesSoFar'
p41
(lp42
S'randomPaw'
p43
aS'allowableKey'
p44
aS'correctKey'
p45
aS'blank'
p46
aS'pawPatrol1'
p47
aS'pawPatrol2'
p48
aS'pawPatrol3'
p49
aS'pawPatrol4'
p50
asS'entries'
p51
(lp52
(dp53
g31
g32
sg14
I1
sg33
g34
sg25
g29
sg17
(lp54
F0.46971821784973145
asg44
(lp55
S'2'
aS'1'
aS'3'
aS'4'
asg45
(lp56
S'2'
asg15
(lp57
S'2'
asg43
Vmin2.png
p58
sg30
g11
sS'trials_1.thisN'
p59
I0
sg46
VallBlank.png
p60
sg23
g24
sg16
I0
sS'trials_1.thisIndex'
p61
g26
(g27
(S'i8'
I0
I1
tRp62
(I3
S'<'
NNNI-1
I-1
I0
tbS'\x01\x00\x00\x00\x00\x00\x00\x00'
tRp63
sS'trials_1.thisTrialN'
p64
I0
sS'trials_1.thisRepN'
p65
I0
sa(dp66
g31
g32
sg14
I1
sg33
g34
sg25
g29
sg17
(lp67
F0.27681183815002441
asg44
(lp68
S'2'
aS'1'
aS'3'
aS'4'
asg45
(lp69
S'3'
asg15
(lp70
S'3'
asg43
Vmin3.png
p71
sg30
g11
sS'trials_1.thisN'
p72
I1
sg46
g60
sg23
g24
sg16
I0
sS'trials_1.thisIndex'
p73
g26
(g62
S'\x02\x00\x00\x00\x00\x00\x00\x00'
tRp74
sS'trials_1.thisTrialN'
p75
I1
sS'trials_1.thisRepN'
p76
I0
sa(dp77
g31
g32
sg14
I1
sg33
g34
sg25
g29
sg17
(lp78
F0.45860910415649414
asg44
(lp79
S'2'
aS'1'
aS'3'
aS'4'
asg45
(lp80
S'1'
asg15
(lp81
S'1'
asg43
Vmin1.png
p82
sg30
g11
sS'trials_1.thisN'
p83
I2
sg46
g60
sg23
g24
sg16
I0
sS'trials_1.thisIndex'
p84
g26
(g62
S'\x00\x00\x00\x00\x00\x00\x00\x00'
tRp85
sS'trials_1.thisTrialN'
p86
I2
sS'trials_1.thisRepN'
p87
I0
sa(dp88
g31
g32
sg14
I1
sg33
g34
sg25
g29
sg17
(lp89
F0.3106238842010498
asg44
(lp90
S'2'
aS'1'
aS'3'
aS'4'
asg45
(lp91
S'4'
asg15
(lp92
S'4'
asg43
Vmin4.png
p93
sg30
g11
sS'trials_1.thisN'
p94
I3
sg46
g60
sg23
g24
sg16
I0
sS'trials_1.thisIndex'
p95
g26
(g62
S'\x03\x00\x00\x00\x00\x00\x00\x00'
tRp96
sS'trials_1.thisTrialN'
p97
I3
sS'trials_1.thisRepN'
p98
I0
sa(dp99
g31
g32
sg14
I1
sg33
g34
sg25
g29
sg17
(lp100
F0.41129088401794434
asg44
g68
sg45
g69
sg15
(lp101
S'3'
asg43
g71
sg30
g11
sS'trials_1.thisN'
p102
I4
sg46
g60
sg23
g24
sg16
I0
sS'trials_1.thisIndex'
p103
g26
(g62
S'\x02\x00\x00\x00\x00\x00\x00\x00'
tRp104
sS'trials_1.thisTrialN'
p105
I0
sS'trials_1.thisRepN'
p106
I1
sa(dp107
g31
g32
sg14
I1
sg33
g34
sg25
g29
sg17
(lp108
F0.42846083641052246
asg44
g79
sg45
g80
sg15
(lp109
S'1'
asg43
g82
sg30
g11
sS'trials_1.thisN'
p110
I5
sg46
g60
sg23
g24
sg16
I0
sS'trials_1.thisIndex'
p111
g26
(g62
S'\x00\x00\x00\x00\x00\x00\x00\x00'
tRp112
sS'trials_1.thisTrialN'
p113
I1
sS'trials_1.thisRepN'
p114
I1
sa(dp115
g31
g32
sg14
I1
sg33
g34
sg25
g29
sg17
(lp116
F0.41138100624084473
asg44
g90
sg45
g91
sg15
(lp117
S'4'
asg43
g93
sg30
g11
sS'trials_1.thisN'
p118
I6
sg46
g60
sg23
g24
sg16
I0
sS'trials_1.thisIndex'
p119
g26
(g62
S'\x03\x00\x00\x00\x00\x00\x00\x00'
tRp120
sS'trials_1.thisTrialN'
p121
I2
sS'trials_1.thisRepN'
p122
I1
sa(dp123
g31
g32
sg14
I1
sg33
g34
sg25
g29
sg17
(lp124
F0.26173591613769531
asg44
g55
sg45
g56
sg15
(lp125
S'2'
asg43
g58
sg30
g11
sS'trials_1.thisN'
p126
I7
sg46
g60
sg23
g24
sg16
I0
sS'trials_1.thisIndex'
p127
g26
(g62
S'\x01\x00\x00\x00\x00\x00\x00\x00'
tRp128
sS'trials_1.thisTrialN'
p129
I3
sS'trials_1.thisRepN'
p130
I1
sa(dp131
g31
g32
sg14
I1
sg33
g34
sg25
g29
sg17
(lp132
F0.27814888954162598
asg44
g68
sg45
g69
sg15
(lp133
S'3'
asg43
g71
sg30
g11
sS'trials_1.thisN'
p134
I8
sg46
g60
sg23
g24
sg16
I0
sS'trials_1.thisIndex'
p135
g26
(g62
S'\x02\x00\x00\x00\x00\x00\x00\x00'
tRp136
sS'trials_1.thisTrialN'
p137
I0
sS'trials_1.thisRepN'
p138
I2
sa(dp139
g31
g32
sg14
I1
sg33
g34
sg25
g29
sg17
(lp140
F0.39605808258056641
asg44
g55
sg45
g56
sg15
(lp141
S'2'
asg43
g58
sg30
g11
sS'trials_1.thisN'
p142
I9
sg46
g60
sg23
g24
sg16
I0
sS'trials_1.thisIndex'
p143
g26
(g62
S'\x01\x00\x00\x00\x00\x00\x00\x00'
tRp144
sS'trials_1.thisTrialN'
p145
I1
sS'trials_1.thisRepN'
p146
I2
sa(dp147
g31
g32
sg14
I1
sg33
g34
sg25
g29
sg17
(lp148
F0.32052803039550781
asg44
g90
sg45
g91
sg15
(lp149
S'4'
asg43
g93
sg30
g11
sS'trials_1.thisN'
p150
I10
sg46
g60
sg23
g24
sg16
I0
sS'trials_1.thisIndex'
p151
g26
(g62
S'\x03\x00\x00\x00\x00\x00\x00\x00'
tRp152
sS'trials_1.thisTrialN'
p153
I2
sS'trials_1.thisRepN'
p154
I2
sa(dp155
g31
g32
sg14
I1
sg33
g34
sg25
g29
sg17
(lp156
F0.24662590026855469
asg44
g79
sg45
g80
sg15
(lp157
S'1'
asg43
g82
sg30
g11
sS'trials_1.thisN'
p158
I11
sg46
g60
sg23
g24
sg16
I0
sS'trials_1.thisIndex'
p159
g26
(g62
S'\x00\x00\x00\x00\x00\x00\x00\x00'
tRp160
sS'trials_1.thisTrialN'
p161
I3
sS'trials_1.thisRepN'
p162
I2
sa(dp163
g31
g32
sg14
I1
sg33
g34
sg25
g29
sg17
(lp164
F0.42771601676940918
asg44
g79
sg45
g80
sg15
(lp165
S'1'
asg43
g82
sg30
g11
sS'trials_1.thisN'
p166
I12
sg46
g60
sg23
g24
sg16
I0
sS'trials_1.thisIndex'
p167
g26
(g62
S'\x00\x00\x00\x00\x00\x00\x00\x00'
tRp168
sS'trials_1.thisTrialN'
p169
I0
sS'trials_1.thisRepN'
p170
I3
sa(dp171
g31
g32
sg14
I1
sg33
g34
sg25
g29
sg17
(lp172
F0.47928714752197266
asg44
g90
sg45
g91
sg15
(lp173
S'4'
asg43
g93
sg30
g11
sS'trials_1.thisN'
p174
I13
sg46
g60
sg23
g24
sg16
I0
sS'trials_1.thisIndex'
p175
g26
(g62
S'\x03\x00\x00\x00\x00\x00\x00\x00'
tRp176
sS'trials_1.thisTrialN'
p177
I1
sS'trials_1.thisRepN'
p178
I3
sa(dp179
g31
g32
sg14
I1
sg33
g34
sg25
g29
sg17
(lp180
F0.27010393142700195
asg44
g55
sg45
g56
sg15
(lp181
S'2'
asg43
g58
sg30
g11
sS'trials_1.thisN'
p182
I14
sg46
g60
sg23
g24
sg16
I0
sS'trials_1.thisIndex'
p183
g26
(g62
S'\x01\x00\x00\x00\x00\x00\x00\x00'
tRp184
sS'trials_1.thisTrialN'
p185
I2
sS'trials_1.thisRepN'
p186
I3
sa(dp187
g31
g32
sg14
I1
sg33
g34
sg25
g29
sg17
(lp188
F0.3369591236114502
asg44
g68
sg45
g69
sg15
(lp189
S'3'
asg43
g71
sg30
g11
sS'trials_1.thisN'
p190
I15
sg46
g60
sg23
g24
sg16
I0
sS'trials_1.thisIndex'
p191
g26
(g62
S'\x02\x00\x00\x00\x00\x00\x00\x00'
tRp192
sS'trials_1.thisTrialN'
p193
I3
sS'trials_1.thisRepN'
p194
I3
sa(dp195
g31
g32
sg14
I1
sg33
g34
sg25
g29
sg17
(lp196
F0.53633689880371094
asg44
g79
sg45
g80
sg15
(lp197
S'1'
asg43
g82
sg30
g11
sS'trials_1.thisN'
p198
I16
sg46
g60
sg23
g24
sg16
I0
sS'trials_1.thisIndex'
p199
g26
(g62
S'\x00\x00\x00\x00\x00\x00\x00\x00'
tRp200
sS'trials_1.thisTrialN'
p201
I0
sS'trials_1.thisRepN'
p202
I4
sa(dp203
g31
g32
sg14
I1
sg33
g34
sg25
g29
sg17
(lp204
F0.46951007843017578
asg44
g90
sg45
g91
sg15
(lp205
S'4'
asg43
g93
sg30
g11
sS'trials_1.thisN'
p206
I17
sg46
g60
sg23
g24
sg16
I0
sS'trials_1.thisIndex'
p207
g26
(g62
S'\x03\x00\x00\x00\x00\x00\x00\x00'
tRp208
sS'trials_1.thisTrialN'
p209
I1
sS'trials_1.thisRepN'
p210
I4
sa(dp211
g31
g32
sg14
I1
sg33
g34
sg25
g29
sg17
(lp212
F0.4200439453125
asg44
g68
sg45
g69
sg15
(lp213
S'3'
asg43
g71
sg30
g11
sS'trials_1.thisN'
p214
I18
sg46
g60
sg23
g24
sg16
I0
sS'trials_1.thisIndex'
p215
g26
(g62
S'\x02\x00\x00\x00\x00\x00\x00\x00'
tRp216
sS'trials_1.thisTrialN'
p217
I2
sS'trials_1.thisRepN'
p218
I4
sa(dp219
g31
g32
sg14
I1
sg33
g34
sg25
g29
sg17
(lp220
F0.27011609077453613
asg44
g55
sg45
g56
sg15
(lp221
S'2'
asg43
g58
sg30
g11
sS'trials_1.thisN'
p222
I19
sg46
g60
sg23
g24
sg16
I0
sS'trials_1.thisIndex'
p223
g26
(g62
S'\x01\x00\x00\x00\x00\x00\x00\x00'
tRp224
sS'trials_1.thisTrialN'
p225
I3
sS'trials_1.thisRepN'
p226
I4
sa(dp227
g31
g32
sg14
I1
sg33
g34
sg25
g29
sg17
(lp228
F0.35426497459411621
asg44
g90
sg45
g91
sg15
(lp229
S'4'
asg43
g93
sg30
g11
sS'trials_1.thisN'
p230
I20
sg46
g60
sg23
g24
sg16
I0
sS'trials_1.thisIndex'
p231
g26
(g62
S'\x03\x00\x00\x00\x00\x00\x00\x00'
tRp232
sS'trials_1.thisTrialN'
p233
I0
sS'trials_1.thisRepN'
p234
I5
sa(dp235
g31
g32
sg14
I1
sg33
g34
sg25
g29
sg17
(lp236
F0.32017302513122559
asg44
g55
sg45
g56
sg15
(lp237
S'2'
asg43
g58
sg30
g11
sS'trials_1.thisN'
p238
I21
sg46
g60
sg23
g24
sg16
I0
sS'trials_1.thisIndex'
p239
g26
(g62
S'\x01\x00\x00\x00\x00\x00\x00\x00'
tRp240
sS'trials_1.thisTrialN'
p241
I1
sS'trials_1.thisRepN'
p242
I5
sa(dp243
g31
g32
sg14
I1
sg33
g34
sg25
g29
sg17
(lp244
F0.43712878227233887
asg44
g79
sg45
g80
sg15
(lp245
S'1'
asg43
g82
sg30
g11
sS'trials_1.thisN'
p246
I22
sg46
g60
sg23
g24
sg16
I0
sS'trials_1.thisIndex'
p247
g26
(g62
S'\x00\x00\x00\x00\x00\x00\x00\x00'
tRp248
sS'trials_1.thisTrialN'
p249
I2
sS'trials_1.thisRepN'
p250
I5
sa(dp251
g31
g32
sg14
I1
sg33
g34
sg25
g29
sg17
(lp252
F0.30350708961486816
asg44
g68
sg45
g69
sg15
(lp253
S'3'
asg43
g71
sg30
g11
sS'trials_1.thisN'
p254
I23
sg46
g60
sg23
g24
sg16
I0
sS'trials_1.thisIndex'
p255
g26
(g62
S'\x02\x00\x00\x00\x00\x00\x00\x00'
tRp256
sS'trials_1.thisTrialN'
p257
I3
sS'trials_1.thisRepN'
p258
I5
sa(dp259
g31
g32
sg14
I1
sg33
g34
sg25
g29
sg17
(lp260
F0.97055196762084961
asg44
g79
sg45
g80
sg15
(lp261
S'1'
asg43
g82
sg30
g11
sS'trials_1.thisN'
p262
I24
sg46
g60
sg23
g24
sg16
I0
sS'trials_1.thisIndex'
p263
g26
(g62
S'\x00\x00\x00\x00\x00\x00\x00\x00'
tRp264
sS'trials_1.thisTrialN'
p265
I0
sS'trials_1.thisRepN'
p266
I6
sa(dp267
g31
g32
sg14
I0
sg33
g34
sg25
g29
sg17
(lp268
F0.37047815322875977
aF0.42040610313415527
asg44
g55
sg45
g56
sg15
(lp269
S'3'
aS'2'
asg43
g58
sg30
g11
sS'trials_1.thisN'
p270
I25
sg46
g60
sg23
g24
sg16
I0
sS'trials_1.thisIndex'
p271
g26
(g62
S'\x01\x00\x00\x00\x00\x00\x00\x00'
tRp272
sS'trials_1.thisTrialN'
p273
I1
sS'trials_1.thisRepN'
p274
I6
sa(dp275
g31
g32
sg14
I1
sg33
g34
sg25
g29
sg17
(lp276
F0.37069416046142578
asg44
g90
sg45
g91
sg15
(lp277
S'4'
asg43
g93
sg30
g11
sS'trials_1.thisN'
p278
I26
sg46
g60
sg23
g24
sg16
I0
sS'trials_1.thisIndex'
p279
g26
(g62
S'\x03\x00\x00\x00\x00\x00\x00\x00'
tRp280
sS'trials_1.thisTrialN'
p281
I2
sS'trials_1.thisRepN'
p282
I6
sa(dp283
g31
g32
sg14
I1
sg33
g34
sg25
g29
sg17
(lp284
F0.3213651180267334
asg44
g68
sg45
g69
sg15
(lp285
S'3'
asg43
g71
sg30
g11
sS'trials_1.thisN'
p286
I27
sg46
g60
sg23
g24
sg16
I0
sS'trials_1.thisIndex'
p287
g26
(g62
S'\x02\x00\x00\x00\x00\x00\x00\x00'
tRp288
sS'trials_1.thisTrialN'
p289
I3
sS'trials_1.thisRepN'
p290
I6
sa(dp291
g31
g32
sg14
I1
sg33
g34
sg25
g29
sg17
(lp292
F0.37216901779174805
asg44
g90
sg45
g91
sg15
(lp293
S'4'
asg43
g93
sg30
g11
sS'trials_1.thisN'
p294
I28
sg46
g60
sg23
g24
sg16
I0
sS'trials_1.thisIndex'
p295
g26
(g62
S'\x03\x00\x00\x00\x00\x00\x00\x00'
tRp296
sS'trials_1.thisTrialN'
p297
I0
sS'trials_1.thisRepN'
p298
I7
sa(dp299
g31
g32
sg14
I1
sg33
g34
sg25
g29
sg17
(lp300
F0.35646486282348633
asg44
g68
sg45
g69
sg15
(lp301
S'3'
asg43
g71
sg30
g11
sS'trials_1.thisN'
p302
I29
sg46
g60
sg23
g24
sg16
I0
sS'trials_1.thisIndex'
p303
g26
(g62
S'\x02\x00\x00\x00\x00\x00\x00\x00'
tRp304
sS'trials_1.thisTrialN'
p305
I1
sS'trials_1.thisRepN'
p306
I7
sa(dp307
g31
g32
sg14
I1
sg33
g34
sg25
g29
sg17
(lp308
F0.26704287528991699
asg44
g55
sg45
g56
sg15
(lp309
S'2'
asg43
g58
sg30
g11
sS'trials_1.thisN'
p310
I30
sg46
g60
sg23
g24
sg16
I0
sS'trials_1.thisIndex'
p311
g26
(g62
S'\x01\x00\x00\x00\x00\x00\x00\x00'
tRp312
sS'trials_1.thisTrialN'
p313
I2
sS'trials_1.thisRepN'
p314
I7
sa(dp315
g31
g32
sg14
I1
sg33
g34
sg25
g29
sg17
(lp316
F0.33689594268798828
asg44
g79
sg45
g80
sg15
(lp317
S'1'
asg43
g82
sg30
g11
sS'trials_1.thisN'
p318
I31
sg46
g60
sg23
g24
sg16
I0
sS'trials_1.thisIndex'
p319
g26
(g62
S'\x00\x00\x00\x00\x00\x00\x00\x00'
tRp320
sS'trials_1.thisTrialN'
p321
I3
sS'trials_1.thisRepN'
p322
I7
sa(dp323
g31
g32
sg14
I1
sg33
g34
sg25
g29
sg17
(lp324
F0.24818015098571777
asg44
g68
sg45
g69
sg15
(lp325
S'3'
asg43
g71
sg30
g11
sS'trials_1.thisN'
p326
I32
sg46
g60
sg23
g24
sg16
I0
sS'trials_1.thisIndex'
p327
g26
(g62
S'\x02\x00\x00\x00\x00\x00\x00\x00'
tRp328
sS'trials_1.thisTrialN'
p329
I0
sS'trials_1.thisRepN'
p330
I8
sa(dp331
g31
g32
sg14
I1
sg33
g34
sg25
g29
sg17
(lp332
F0.25311088562011719
asg44
g55
sg45
g56
sg15
(lp333
S'2'
asg43
g58
sg30
g11
sS'trials_1.thisN'
p334
I33
sg46
g60
sg23
g24
sg16
I0
sS'trials_1.thisIndex'
p335
g26
(g62
S'\x01\x00\x00\x00\x00\x00\x00\x00'
tRp336
sS'trials_1.thisTrialN'
p337
I1
sS'trials_1.thisRepN'
p338
I8
sa(dp339
g31
g32
sg14
I1
sg33
g34
sg25
g29
sg17
(lp340
F0.20284295082092285
asg44
g90
sg45
g91
sg15
(lp341
S'4'
asg43
g93
sg30
g11
sS'trials_1.thisN'
p342
I34
sg46
g60
sg23
g24
sg16
I0
sS'trials_1.thisIndex'
p343
g26
(g62
S'\x03\x00\x00\x00\x00\x00\x00\x00'
tRp344
sS'trials_1.thisTrialN'
p345
I2
sS'trials_1.thisRepN'
p346
I8
sa(dp347
g31
g32
sg14
I1
sg33
g34
sg25
g29
sg17
(lp348
F0.28535294532775879
asg44
g79
sg45
g80
sg15
(lp349
S'1'
asg43
g82
sg30
g11
sS'trials_1.thisN'
p350
I35
sg46
g60
sg23
g24
sg16
I0
sS'trials_1.thisIndex'
p351
g26
(g62
S'\x00\x00\x00\x00\x00\x00\x00\x00'
tRp352
sS'trials_1.thisTrialN'
p353
I3
sS'trials_1.thisRepN'
p354
I8
sa(dp355
g31
g32
sg14
I0
sg33
g34
sg25
g29
sg17
(lp356
F0.18679213523864746
aF0.57564401626586914
asg44
g90
sg45
g91
sg15
(lp357
S'3'
aS'4'
asg43
g93
sg30
g11
sS'trials_1.thisN'
p358
I36
sg46
g60
sg23
g24
sg16
I0
sS'trials_1.thisIndex'
p359
g26
(g62
S'\x03\x00\x00\x00\x00\x00\x00\x00'
tRp360
sS'trials_1.thisTrialN'
p361
I0
sS'trials_1.thisRepN'
p362
I9
sa(dp363
g31
g32
sg14
I0
sg33
g34
sg25
g29
sg17
(lp364
F0.1926720142364502
aF0.50708603858947754
asg44
g79
sg45
g80
sg15
(lp365
S'2'
aS'1'
asg43
g82
sg30
g11
sS'trials_1.thisN'
p366
I37
sg46
g60
sg23
g24
sg16
I0
sS'trials_1.thisIndex'
p367
g26
(g62
S'\x00\x00\x00\x00\x00\x00\x00\x00'
tRp368
sS'trials_1.thisTrialN'
p369
I1
sS'trials_1.thisRepN'
p370
I9
sa(dp371
g31
g32
sg14
I1
sg33
g34
sg25
g29
sg17
(lp372
F0.40883803367614746
asg44
g55
sg45
g56
sg15
(lp373
S'2'
asg43
g58
sg30
g11
sS'trials_1.thisN'
p374
I38
sg46
g60
sg23
g24
sg16
I0
sS'trials_1.thisIndex'
p375
g26
(g62
S'\x01\x00\x00\x00\x00\x00\x00\x00'
tRp376
sS'trials_1.thisTrialN'
p377
I2
sS'trials_1.thisRepN'
p378
I9
sa(dp379
g31
g32
sg14
I1
sg33
g34
sg25
g29
sg17
(lp380
F0.25892496109008789
asg44
g68
sg45
g69
sg15
(lp381
S'3'
asg43
g71
sg30
g11
sS'trials_1.thisN'
p382
I39
sg46
g60
sg23
g24
sg16
I0
sS'trials_1.thisIndex'
p383
g26
(g62
S'\x02\x00\x00\x00\x00\x00\x00\x00'
tRp384
sS'trials_1.thisTrialN'
p385
I3
sS'trials_1.thisRepN'
p386
I9
sa(dp387
g31
g32
sg14
I1
sg33
g34
sg25
g29
sg17
(lp388
F0.2749171257019043
asg44
g90
sg45
g91
sg15
(lp389
S'4'
asg43
g93
sg30
g11
sS'trials_1.thisN'
p390
I40
sg46
g60
sg23
g24
sg16
I0
sS'trials_1.thisIndex'
p391
g26
(g62
S'\x03\x00\x00\x00\x00\x00\x00\x00'
tRp392
sS'trials_1.thisTrialN'
p393
I0
sS'trials_1.thisRepN'
p394
I10
sa(dp395
g31
g32
sg14
I1
sg33
g34
sg25
g29
sg17
(lp396
F0.32772588729858398
asg44
g55
sg45
g56
sg15
(lp397
S'2'
asg43
g58
sg30
g11
sS'trials_1.thisN'
p398
I41
sg46
g60
sg23
g24
sg16
I0
sS'trials_1.thisIndex'
p399
g26
(g62
S'\x01\x00\x00\x00\x00\x00\x00\x00'
tRp400
sS'trials_1.thisTrialN'
p401
I1
sS'trials_1.thisRepN'
p402
I10
sa(dp403
g31
g32
sg14
I1
sg33
g34
sg25
g29
sg17
(lp404
F0.37583112716674805
asg44
g79
sg45
g80
sg15
(lp405
S'1'
asg43
g82
sg30
g11
sS'trials_1.thisN'
p406
I42
sg46
g60
sg23
g24
sg16
I0
sS'trials_1.thisIndex'
p407
g26
(g62
S'\x00\x00\x00\x00\x00\x00\x00\x00'
tRp408
sS'trials_1.thisTrialN'
p409
I2
sS'trials_1.thisRepN'
p410
I10
sa(dp411
g31
g32
sg14
I1
sg33
g34
sg25
g29
sg17
(lp412
F0.2282721996307373
asg44
g68
sg45
g69
sg15
(lp413
S'3'
asg43
g71
sg30
g11
sS'trials_1.thisN'
p414
I43
sg46
g60
sg23
g24
sg16
I0
sS'trials_1.thisIndex'
p415
g26
(g62
S'\x02\x00\x00\x00\x00\x00\x00\x00'
tRp416
sS'trials_1.thisTrialN'
p417
I3
sS'trials_1.thisRepN'
p418
I10
sa(dp419
g31
g32
sg14
I1
sg33
g34
sg25
g29
sg17
(lp420
F0.31960797309875488
asg44
g90
sg45
g91
sg15
(lp421
S'4'
asg43
g93
sg30
g11
sS'trials_1.thisN'
p422
I44
sg46
g60
sg23
g24
sg16
I0
sS'trials_1.thisIndex'
p423
g26
(g62
S'\x03\x00\x00\x00\x00\x00\x00\x00'
tRp424
sS'trials_1.thisTrialN'
p425
I0
sS'trials_1.thisRepN'
p426
I11
sa(dp427
g31
g32
sg14
I1
sg33
g34
sg25
g29
sg17
(lp428
F0.20964312553405762
asg44
g55
sg45
g56
sg15
(lp429
S'2'
asg43
g58
sg30
g11
sS'trials_1.thisN'
p430
I45
sg46
g60
sg23
g24
sg16
I0
sS'trials_1.thisIndex'
p431
g26
(g62
S'\x01\x00\x00\x00\x00\x00\x00\x00'
tRp432
sS'trials_1.thisTrialN'
p433
I1
sS'trials_1.thisRepN'
p434
I11
sa(dp435
g31
g32
sg14
I1
sg33
g34
sg25
g29
sg17
(lp436
F0.24600696563720703
asg44
g79
sg45
g80
sg15
(lp437
S'1'
asg43
g82
sg30
g11
sS'trials_1.thisN'
p438
I46
sg46
g60
sg23
g24
sg16
I0
sS'trials_1.thisIndex'
p439
g26
(g62
S'\x00\x00\x00\x00\x00\x00\x00\x00'
tRp440
sS'trials_1.thisTrialN'
p441
I2
sS'trials_1.thisRepN'
p442
I11
sa(dp443
g31
g32
sg14
I1
sg33
g34
sg25
g29
sg17
(lp444
F0.2133641242980957
asg44
g68
sg45
g69
sg15
(lp445
S'3'
asg43
g71
sg30
g11
sS'trials_1.thisN'
p446
I47
sg46
g60
sg23
g24
sg16
I0
sS'trials_1.thisIndex'
p447
g26
(g62
S'\x02\x00\x00\x00\x00\x00\x00\x00'
tRp448
sS'trials_1.thisTrialN'
p449
I3
sS'trials_1.thisRepN'
p450
I11
sa(dp451
g31
g32
sg14
I0
sg33
g34
sg25
g29
sg17
(lp452
F0.21328496932983398
aF0.52979397773742676
asg44
g68
sg45
g69
sg15
(lp453
S'4'
aS'3'
asg43
g71
sg30
g11
sS'trials_1.thisN'
p454
I48
sg46
g60
sg23
g24
sg16
I0
sS'trials_1.thisIndex'
p455
g26
(g62
S'\x02\x00\x00\x00\x00\x00\x00\x00'
tRp456
sS'trials_1.thisTrialN'
p457
I0
sS'trials_1.thisRepN'
p458
I12
sa(dp459
g31
g32
sg14
I1
sg33
g34
sg25
g29
sg17
(lp460
F0.24678397178649902
asg44
g55
sg45
g56
sg15
(lp461
S'2'
asg43
g58
sg30
g11
sS'trials_1.thisN'
p462
I49
sg46
g60
sg23
g24
sg16
I0
sS'trials_1.thisIndex'
p463
g26
(g62
S'\x01\x00\x00\x00\x00\x00\x00\x00'
tRp464
sS'trials_1.thisTrialN'
p465
I1
sS'trials_1.thisRepN'
p466
I12
sa(dp467
g31
g32
sg14
I1
sg33
g34
sg25
g29
sg17
(lp468
F0.26361179351806641
asg44
g90
sg45
g91
sg15
(lp469
S'4'
asg43
g93
sg30
g11
sS'trials_1.thisN'
p470
I50
sg46
g60
sg23
g24
sg16
I0
sS'trials_1.thisIndex'
p471
g26
(g62
S'\x03\x00\x00\x00\x00\x00\x00\x00'
tRp472
sS'trials_1.thisTrialN'
p473
I2
sS'trials_1.thisRepN'
p474
I12
sa(dp475
g31
g32
sg14
I1
sg33
g34
sg25
g29
sg17
(lp476
F0.29690694808959961
asg44
g79
sg45
g80
sg15
(lp477
S'1'
asg43
g82
sg30
g11
sS'trials_1.thisN'
p478
I51
sg46
g60
sg23
g24
sg16
I0
sS'trials_1.thisIndex'
p479
g26
(g62
S'\x00\x00\x00\x00\x00\x00\x00\x00'
tRp480
sS'trials_1.thisTrialN'
p481
I3
sS'trials_1.thisRepN'
p482
I12
sa(dp483
g31
g32
sg14
I1
sg33
g34
sg25
g29
sg17
(lp484
F0.37709903717041016
asg44
g55
sg45
g56
sg15
(lp485
S'2'
asg43
g58
sg30
g11
sS'trials_1.thisN'
p486
I52
sg46
g60
sg23
g24
sg16
I0
sS'trials_1.thisIndex'
p487
g26
(g62
S'\x01\x00\x00\x00\x00\x00\x00\x00'
tRp488
sS'trials_1.thisTrialN'
p489
I0
sS'trials_1.thisRepN'
p490
I13
sa(dp491
g31
g32
sg14
I1
sg33
g34
sg25
g29
sg17
(lp492
F0.39674592018127441
asg44
g79
sg45
g80
sg15
(lp493
S'1'
asg43
g82
sg30
g11
sS'trials_1.thisN'
p494
I53
sg46
g60
sg23
g24
sg16
I0
sS'trials_1.thisIndex'
p495
g26
(g62
S'\x00\x00\x00\x00\x00\x00\x00\x00'
tRp496
sS'trials_1.thisTrialN'
p497
I1
sS'trials_1.thisRepN'
p498
I13
sa(dp499
g31
g32
sg14
I1
sg33
g34
sg25
g29
sg17
(lp500
F0.47812891006469727
asg44
g90
sg45
g91
sg15
(lp501
S'4'
asg43
g93
sg30
g11
sS'trials_1.thisN'
p502
I54
sg46
g60
sg23
g24
sg16
I0
sS'trials_1.thisIndex'
p503
g26
(g62
S'\x03\x00\x00\x00\x00\x00\x00\x00'
tRp504
sS'trials_1.thisTrialN'
p505
I2
sS'trials_1.thisRepN'
p506
I13
sa(dp507
g31
g32
sg14
I1
sg33
g34
sg25
g29
sg17
(lp508
F1.6035828590393066
asg44
g68
sg45
g69
sg15
(lp509
S'3'
asg43
g71
sg30
g11
sS'trials_1.thisN'
p510
I55
sg46
g60
sg23
g24
sg16
I0
sS'trials_1.thisIndex'
p511
g26
(g62
S'\x02\x00\x00\x00\x00\x00\x00\x00'
tRp512
sS'trials_1.thisTrialN'
p513
I3
sS'trials_1.thisRepN'
p514
I13
sa(dp515
g31
g32
sg14
I1
sg33
g34
sg25
g29
sg17
(lp516
F0.50371980667114258
asg44
g55
sg45
g56
sg15
(lp517
S'2'
asg43
g58
sg30
g11
sS'trials_1.thisN'
p518
I56
sg46
g60
sg23
g24
sg16
I0
sS'trials_1.thisIndex'
p519
g26
(g62
S'\x01\x00\x00\x00\x00\x00\x00\x00'
tRp520
sS'trials_1.thisTrialN'
p521
I0
sS'trials_1.thisRepN'
p522
I14
sa(dp523
g31
g32
sg14
I1
sg33
g34
sg25
g29
sg17
(lp524
F0.43648505210876465
asg44
g68
sg45
g69
sg15
(lp525
S'3'
asg43
g71
sg30
g11
sS'trials_1.thisN'
p526
I57
sg46
g60
sg23
g24
sg16
I0
sS'trials_1.thisIndex'
p527
g26
(g62
S'\x02\x00\x00\x00\x00\x00\x00\x00'
tRp528
sS'trials_1.thisTrialN'
p529
I1
sS'trials_1.thisRepN'
p530
I14
sa(dp531
g31
g32
sg14
I1
sg33
g34
sg25
g29
sg17
(lp532
F0.4027869701385498
asg44
g79
sg45
g80
sg15
(lp533
S'1'
asg43
g82
sg30
g11
sS'trials_1.thisN'
p534
I58
sg46
g60
sg23
g24
sg16
I0
sS'trials_1.thisIndex'
p535
g26
(g62
S'\x00\x00\x00\x00\x00\x00\x00\x00'
tRp536
sS'trials_1.thisTrialN'
p537
I2
sS'trials_1.thisRepN'
p538
I14
sa(dp539
g31
g32
sg14
I1
sg33
g34
sg25
g29
sg17
(lp540
F0.33691310882568359
asg44
g90
sg45
g91
sg15
(lp541
S'4'
asg43
g93
sg30
g11
sS'trials_1.thisN'
p542
I59
sg46
g60
sg23
g24
sg16
I0
sS'trials_1.thisIndex'
p543
g26
(g62
S'\x03\x00\x00\x00\x00\x00\x00\x00'
tRp544
sS'trials_1.thisTrialN'
p545
I3
sS'trials_1.thisRepN'
p546
I14
sa(dp547
g31
g32
sg14
I1
sg33
g34
sg25
g29
sg17
(lp548
F0.31940603256225586
asg44
g55
sg45
g56
sg15
(lp549
S'2'
asg43
g58
sg30
g11
sS'trials_1.thisN'
p550
I60
sg46
g60
sg23
g24
sg16
I0
sS'trials_1.thisIndex'
p551
g26
(g62
S'\x01\x00\x00\x00\x00\x00\x00\x00'
tRp552
sS'trials_1.thisTrialN'
p553
I0
sS'trials_1.thisRepN'
p554
I15
sa(dp555
g31
g32
sg14
I1
sg33
g34
sg25
g29
sg17
(lp556
F0.23732781410217285
asg44
g68
sg45
g69
sg15
(lp557
S'3'
asg43
g71
sg30
g11
sS'trials_1.thisN'
p558
I61
sg46
g60
sg23
g24
sg16
I0
sS'trials_1.thisIndex'
p559
g26
(g62
S'\x02\x00\x00\x00\x00\x00\x00\x00'
tRp560
sS'trials_1.thisTrialN'
p561
I1
sS'trials_1.thisRepN'
p562
I15
sa(dp563
g31
g32
sg14
I1
sg33
g34
sg25
g29
sg17
(lp564
F0.38702797889709473
asg44
g79
sg45
g80
sg15
(lp565
S'1'
asg43
g82
sg30
g11
sS'trials_1.thisN'
p566
I62
sg46
g60
sg23
g24
sg16
I0
sS'trials_1.thisIndex'
p567
g26
(g62
S'\x00\x00\x00\x00\x00\x00\x00\x00'
tRp568
sS'trials_1.thisTrialN'
p569
I2
sS'trials_1.thisRepN'
p570
I15
sa(dp571
g31
g32
sg14
I1
sg33
g34
sg25
g29
sg17
(lp572
F0.27112102508544922
asg44
g90
sg45
g91
sg15
(lp573
S'4'
asg43
g93
sg30
g11
sS'trials_1.thisN'
p574
I63
sg46
g60
sg23
g24
sg16
I0
sS'trials_1.thisIndex'
p575
g26
(g62
S'\x03\x00\x00\x00\x00\x00\x00\x00'
tRp576
sS'trials_1.thisTrialN'
p577
I3
sS'trials_1.thisRepN'
p578
I15
sa(dp579
g31
g32
sg14
I1
sg33
g34
sg25
g29
sg17
(lp580
F0.40439105033874512
asg44
g79
sg45
g80
sg15
(lp581
S'1'
asg43
g82
sg30
g11
sS'trials_1.thisN'
p582
I64
sg46
g60
sg23
g24
sg16
I0
sS'trials_1.thisIndex'
p583
g26
(g62
S'\x00\x00\x00\x00\x00\x00\x00\x00'
tRp584
sS'trials_1.thisTrialN'
p585
I0
sS'trials_1.thisRepN'
p586
I16
sa(dp587
g31
g32
sg14
I0
sg33
g34
sg25
g29
sg17
(lp588
F0.20455813407897949
aF0.47085094451904297
asg44
g90
sg45
g91
sg15
(lp589
S'3'
aS'4'
asg43
g93
sg30
g11
sS'trials_1.thisN'
p590
I65
sg46
g60
sg23
g24
sg16
I0
sS'trials_1.thisIndex'
p591
g26
(g62
S'\x03\x00\x00\x00\x00\x00\x00\x00'
tRp592
sS'trials_1.thisTrialN'
p593
I1
sS'trials_1.thisRepN'
p594
I16
sa(dp595
g31
g32
sg14
I1
sg33
g34
sg25
g29
sg17
(lp596
F0.27111721038818359
asg44
g55
sg45
g56
sg15
(lp597
S'2'
asg43
g58
sg30
g11
sS'trials_1.thisN'
p598
I66
sg46
g60
sg23
g24
sg16
I0
sS'trials_1.thisIndex'
p599
g26
(g62
S'\x01\x00\x00\x00\x00\x00\x00\x00'
tRp600
sS'trials_1.thisTrialN'
p601
I2
sS'trials_1.thisRepN'
p602
I16
sa(dp603
g31
g32
sg14
I1
sg33
g34
sg25
g29
sg17
(lp604
F0.25582003593444824
asg44
g68
sg45
g69
sg15
(lp605
S'3'
asg43
g71
sg30
g11
sS'trials_1.thisN'
p606
I67
sg46
g60
sg23
g24
sg16
I0
sS'trials_1.thisIndex'
p607
g26
(g62
S'\x02\x00\x00\x00\x00\x00\x00\x00'
tRp608
sS'trials_1.thisTrialN'
p609
I3
sS'trials_1.thisRepN'
p610
I16
sa(dp611
g31
g32
sg14
I1
sg33
g34
sg25
g29
sg17
(lp612
F0.35665416717529297
asg44
g68
sg45
g69
sg15
(lp613
S'3'
asg43
g71
sg30
g11
sS'trials_1.thisN'
p614
I68
sg46
g60
sg23
g24
sg16
I0
sS'trials_1.thisIndex'
p615
g26
(g62
S'\x02\x00\x00\x00\x00\x00\x00\x00'
tRp616
sS'trials_1.thisTrialN'
p617
I0
sS'trials_1.thisRepN'
p618
I17
sa(dp619
g31
g32
sg14
I1
sg33
g34
sg25
g29
sg17
(lp620
F0.32027888298034668
asg44
g90
sg45
g91
sg15
(lp621
S'4'
asg43
g93
sg30
g11
sS'trials_1.thisN'
p622
I69
sg46
g60
sg23
g24
sg16
I0
sS'trials_1.thisIndex'
p623
g26
(g62
S'\x03\x00\x00\x00\x00\x00\x00\x00'
tRp624
sS'trials_1.thisTrialN'
p625
I1
sS'trials_1.thisRepN'
p626
I17
sa(dp627
g31
g32
sg14
I1
sg33
g34
sg25
g29
sg17
(lp628
F0.35395193099975586
asg44
g55
sg45
g56
sg15
(lp629
S'2'
asg43
g58
sg30
g11
sS'trials_1.thisN'
p630
I70
sg46
g60
sg23
g24
sg16
I0
sS'trials_1.thisIndex'
p631
g26
(g62
S'\x01\x00\x00\x00\x00\x00\x00\x00'
tRp632
sS'trials_1.thisTrialN'
p633
I2
sS'trials_1.thisRepN'
p634
I17
sa(dp635
g31
g32
sg14
I1
sg33
g34
sg25
g29
sg17
(lp636
F0.38628292083740234
asg44
g79
sg45
g80
sg15
(lp637
S'1'
asg43
g82
sg30
g11
sS'trials_1.thisN'
p638
I71
sg46
g60
sg23
g24
sg16
I0
sS'trials_1.thisIndex'
p639
g26
(g62
S'\x00\x00\x00\x00\x00\x00\x00\x00'
tRp640
sS'trials_1.thisTrialN'
p641
I3
sS'trials_1.thisRepN'
p642
I17
sa(dp643
g31
g32
sg14
I0
sg33
g34
sg25
g29
sg17
(lp644
F0.25315308570861816
aF0.58685898780822754
asg44
g90
sg45
g91
sg15
(lp645
S'3'
aS'4'
asg43
g93
sg30
g11
sS'trials_1.thisN'
p646
I72
sg46
g60
sg23
g24
sg16
I0
sS'trials_1.thisIndex'
p647
g26
(g62
S'\x03\x00\x00\x00\x00\x00\x00\x00'
tRp648
sS'trials_1.thisTrialN'
p649
I0
sS'trials_1.thisRepN'
p650
I18
sa(dp651
g31
g32
sg14
I1
sg33
g34
sg25
g29
sg17
(lp652
F0.28694295883178711
asg44
g55
sg45
g56
sg15
(lp653
S'2'
asg43
g58
sg30
g11
sS'trials_1.thisN'
p654
I73
sg46
g60
sg23
g24
sg16
I0
sS'trials_1.thisIndex'
p655
g26
(g62
S'\x01\x00\x00\x00\x00\x00\x00\x00'
tRp656
sS'trials_1.thisTrialN'
p657
I1
sS'trials_1.thisRepN'
p658
I18
sa(dp659
g31
g32
sg14
I1
sg33
g34
sg25
g29
sg17
(lp660
F0.25256085395812988
asg44
g68
sg45
g69
sg15
(lp661
S'3'
asg43
g71
sg30
g11
sS'trials_1.thisN'
p662
I74
sg46
g60
sg23
g24
sg16
I0
sS'trials_1.thisIndex'
p663
g26
(g62
S'\x02\x00\x00\x00\x00\x00\x00\x00'
tRp664
sS'trials_1.thisTrialN'
p665
I2
sS'trials_1.thisRepN'
p666
I18
sa(dp667
g31
g32
sg14
I1
sg33
g34
sg25
g29
sg17
(lp668
F0.291748046875
asg44
g79
sg45
g80
sg15
(lp669
S'1'
asg43
g82
sg30
g11
sS'trials_1.thisN'
p670
I75
sg46
g60
sg23
g24
sg16
I0
sS'trials_1.thisIndex'
p671
g26
(g62
S'\x00\x00\x00\x00\x00\x00\x00\x00'
tRp672
sS'trials_1.thisTrialN'
p673
I3
sS'trials_1.thisRepN'
p674
I18
sa(dp675
g31
g32
sg14
I1
sg33
g34
sg25
g29
sg17
(lp676
F0.4237828254699707
asg44
g55
sg45
g56
sg15
(lp677
S'2'
asg43
g58
sg30
g11
sS'trials_1.thisN'
p678
I76
sg46
g60
sg23
g24
sg16
I0
sS'trials_1.thisIndex'
p679
g26
(g62
S'\x01\x00\x00\x00\x00\x00\x00\x00'
tRp680
sS'trials_1.thisTrialN'
p681
I0
sS'trials_1.thisRepN'
p682
I19
sa(dp683
g31
g32
sg14
I1
sg33
g34
sg25
g29
sg17
(lp684
F0.32618212699890137
asg44
g90
sg45
g91
sg15
(lp685
S'4'
asg43
g93
sg30
g11
sS'trials_1.thisN'
p686
I77
sg46
g60
sg23
g24
sg16
I0
sS'trials_1.thisIndex'
p687
g26
(g62
S'\x03\x00\x00\x00\x00\x00\x00\x00'
tRp688
sS'trials_1.thisTrialN'
p689
I1
sS'trials_1.thisRepN'
p690
I19
sa(dp691
g31
g32
sg14
I1
sg33
g34
sg25
g29
sg17
(lp692
F0.34069395065307617
asg44
g68
sg45
g69
sg15
(lp693
S'3'
asg43
g71
sg30
g11
sS'trials_1.thisN'
p694
I78
sg46
g60
sg23
g24
sg16
I0
sS'trials_1.thisIndex'
p695
g26
(g62
S'\x02\x00\x00\x00\x00\x00\x00\x00'
tRp696
sS'trials_1.thisTrialN'
p697
I2
sS'trials_1.thisRepN'
p698
I19
sa(dp699
g31
g32
sg14
I1
sg33
g34
sg25
g29
sg17
(lp700
F0.40985512733459473
asg44
g79
sg45
g80
sg15
(lp701
S'1'
asg43
g82
sg30
g11
sS'trials_1.thisN'
p702
I79
sg46
g60
sg23
g24
sg16
I0
sS'trials_1.thisIndex'
p703
g26
(g62
S'\x00\x00\x00\x00\x00\x00\x00\x00'
tRp704
sS'trials_1.thisTrialN'
p705
I3
sS'trials_1.thisRepN'
p706
I19
sa(dp707
g31
g32
sg14
I1
sg33
g34
sg25
g29
sg17
(lp708
F0.32783889770507812
asg44
g90
sg45
g91
sg15
(lp709
S'4'
asg43
g93
sg30
g11
sS'trials_1.thisN'
p710
I80
sg46
g60
sg23
g24
sg16
I0
sS'trials_1.thisIndex'
p711
g26
(g62
S'\x03\x00\x00\x00\x00\x00\x00\x00'
tRp712
sS'trials_1.thisTrialN'
p713
I0
sS'trials_1.thisRepN'
p714
I20
sa(dp715
g31
g32
sg14
I1
sg33
g34
sg25
g29
sg17
(lp716
F0.39469695091247559
asg44
g68
sg45
g69
sg15
(lp717
S'3'
asg43
g71
sg30
g11
sS'trials_1.thisN'
p718
I81
sg46
g60
sg23
g24
sg16
I0
sS'trials_1.thisIndex'
p719
g26
(g62
S'\x02\x00\x00\x00\x00\x00\x00\x00'
tRp720
sS'trials_1.thisTrialN'
p721
I1
sS'trials_1.thisRepN'
p722
I20
sa(dp723
g31
g32
sg14
I1
sg33
g34
sg25
g29
sg17
(lp724
F0.41209197044372559
asg44
g79
sg45
g80
sg15
(lp725
S'1'
asg43
g82
sg30
g11
sS'trials_1.thisN'
p726
I82
sg46
g60
sg23
g24
sg16
I0
sS'trials_1.thisIndex'
p727
g26
(g62
S'\x00\x00\x00\x00\x00\x00\x00\x00'
tRp728
sS'trials_1.thisTrialN'
p729
I2
sS'trials_1.thisRepN'
p730
I20
sa(dp731
g31
g32
sg14
I1
sg33
g34
sg25
g29
sg17
(lp732
F0.26232004165649414
asg44
g55
sg45
g56
sg15
(lp733
S'2'
asg43
g58
sg30
g11
sS'trials_1.thisN'
p734
I83
sg46
g60
sg23
g24
sg16
I0
sS'trials_1.thisIndex'
p735
g26
(g62
S'\x01\x00\x00\x00\x00\x00\x00\x00'
tRp736
sS'trials_1.thisTrialN'
p737
I3
sS'trials_1.thisRepN'
p738
I20
sa(dp739
g31
g32
sg14
I1
sg33
g34
sg25
g29
sg17
(lp740
F0.36159205436706543
asg44
g55
sg45
g56
sg15
(lp741
S'2'
asg43
g58
sg30
g11
sS'trials_1.thisN'
p742
I84
sg46
g60
sg23
g24
sg16
I0
sS'trials_1.thisIndex'
p743
g26
(g62
S'\x01\x00\x00\x00\x00\x00\x00\x00'
tRp744
sS'trials_1.thisTrialN'
p745
I0
sS'trials_1.thisRepN'
p746
I21
sa(dp747
g31
g32
sg14
I1
sg33
g34
sg25
g29
sg17
(lp748
F0.34573698043823242
asg44
g90
sg45
g91
sg15
(lp749
S'4'
asg43
g93
sg30
g11
sS'trials_1.thisN'
p750
I85
sg46
g60
sg23
g24
sg16
I0
sS'trials_1.thisIndex'
p751
g26
(g62
S'\x03\x00\x00\x00\x00\x00\x00\x00'
tRp752
sS'trials_1.thisTrialN'
p753
I1
sS'trials_1.thisRepN'
p754
I21
sa(dp755
g31
g32
sg14
I1
sg33
g34
sg25
g29
sg17
(lp756
F0.27853488922119141
asg44
g68
sg45
g69
sg15
(lp757
S'3'
asg43
g71
sg30
g11
sS'trials_1.thisN'
p758
I86
sg46
g60
sg23
g24
sg16
I0
sS'trials_1.thisIndex'
p759
g26
(g62
S'\x02\x00\x00\x00\x00\x00\x00\x00'
tRp760
sS'trials_1.thisTrialN'
p761
I2
sS'trials_1.thisRepN'
p762
I21
sa(dp763
g31
g32
sg14
I1
sg33
g34
sg25
g29
sg17
(lp764
F0.36273002624511719
asg44
g79
sg45
g80
sg15
(lp765
S'1'
asg43
g82
sg30
g11
sS'trials_1.thisN'
p766
I87
sg46
g60
sg23
g24
sg16
I0
sS'trials_1.thisIndex'
p767
g26
(g62
S'\x00\x00\x00\x00\x00\x00\x00\x00'
tRp768
sS'trials_1.thisTrialN'
p769
I3
sS'trials_1.thisRepN'
p770
I21
sa(dp771
g31
g32
sg14
I1
sg33
g34
sg25
g29
sg17
(lp772
F0.26341104507446289
asg44
g68
sg45
g69
sg15
(lp773
S'3'
asg43
g71
sg30
g11
sS'trials_1.thisN'
p774
I88
sg46
g60
sg23
g24
sg16
I0
sS'trials_1.thisIndex'
p775
g26
(g62
S'\x02\x00\x00\x00\x00\x00\x00\x00'
tRp776
sS'trials_1.thisTrialN'
p777
I0
sS'trials_1.thisRepN'
p778
I22
sa(dp779
g31
g32
sg14
I1
sg33
g34
sg25
g29
sg17
(lp780
F0.26313495635986328
asg44
g55
sg45
g56
sg15
(lp781
S'2'
asg43
g58
sg30
g11
sS'trials_1.thisN'
p782
I89
sg46
g60
sg23
g24
sg16
I0
sS'trials_1.thisIndex'
p783
g26
(g62
S'\x01\x00\x00\x00\x00\x00\x00\x00'
tRp784
sS'trials_1.thisTrialN'
p785
I1
sS'trials_1.thisRepN'
p786
I22
sa(dp787
g31
g32
sg14
I1
sg33
g34
sg25
g29
sg17
(lp788
F0.47901391983032227
asg44
g79
sg45
g80
sg15
(lp789
S'1'
asg43
g82
sg30
g11
sS'trials_1.thisN'
p790
I90
sg46
g60
sg23
g24
sg16
I0
sS'trials_1.thisIndex'
p791
g26
(g62
S'\x00\x00\x00\x00\x00\x00\x00\x00'
tRp792
sS'trials_1.thisTrialN'
p793
I2
sS'trials_1.thisRepN'
p794
I22
sa(dp795
g31
g32
sg14
I0
sg33
g34
sg25
g29
sg17
(lp796
F0.27051186561584473
aF0.45431780815124512
asg44
g90
sg45
g91
sg15
(lp797
S'3'
aS'4'
asg43
g93
sg30
g11
sS'trials_1.thisN'
p798
I91
sg46
g60
sg23
g24
sg16
I0
sS'trials_1.thisIndex'
p799
g26
(g62
S'\x03\x00\x00\x00\x00\x00\x00\x00'
tRp800
sS'trials_1.thisTrialN'
p801
I3
sS'trials_1.thisRepN'
p802
I22
sa(dp803
g31
g32
sg14
I1
sg33
g34
sg25
g29
sg17
(lp804
F0.43016791343688965
asg44
g68
sg45
g69
sg15
(lp805
S'3'
asg43
g71
sg30
g11
sS'trials_1.thisN'
p806
I92
sg46
g60
sg23
g24
sg16
I0
sS'trials_1.thisIndex'
p807
g26
(g62
S'\x02\x00\x00\x00\x00\x00\x00\x00'
tRp808
sS'trials_1.thisTrialN'
p809
I0
sS'trials_1.thisRepN'
p810
I23
sa(dp811
g31
g32
sg14
I1
sg33
g34
sg25
g29
sg17
(lp812
F0.39619278907775879
asg44
g79
sg45
g80
sg15
(lp813
S'1'
asg43
g82
sg30
g11
sS'trials_1.thisN'
p814
I93
sg46
g60
sg23
g24
sg16
I0
sS'trials_1.thisIndex'
p815
g26
(g62
S'\x00\x00\x00\x00\x00\x00\x00\x00'
tRp816
sS'trials_1.thisTrialN'
p817
I1
sS'trials_1.thisRepN'
p818
I23
sa(dp819
g31
g32
sg14
I1
sg33
g34
sg25
g29
sg17
(lp820
F0.23618316650390625
asg44
g55
sg45
g56
sg15
(lp821
S'2'
asg43
g58
sg30
g11
sS'trials_1.thisN'
p822
I94
sg46
g60
sg23
g24
sg16
I0
sS'trials_1.thisIndex'
p823
g26
(g62
S'\x01\x00\x00\x00\x00\x00\x00\x00'
tRp824
sS'trials_1.thisTrialN'
p825
I2
sS'trials_1.thisRepN'
p826
I23
sa(dp827
g31
g32
sg14
I1
sg33
g34
sg25
g29
sg17
(lp828
F0.36710405349731445
asg44
g90
sg45
g91
sg15
(lp829
S'4'
asg43
g93
sg30
g11
sS'trials_1.thisN'
p830
I95
sg46
g60
sg23
g24
sg16
I0
sS'trials_1.thisIndex'
p831
g26
(g62
S'\x03\x00\x00\x00\x00\x00\x00\x00'
tRp832
sS'trials_1.thisTrialN'
p833
I3
sS'trials_1.thisRepN'
p834
I23
sa(dp835
g31
g32
sg14
I1
sg33
g34
sg25
g29
sg17
(lp836
F0.52050018310546875
asg44
g55
sg45
g56
sg15
(lp837
S'2'
asg43
g58
sg30
g11
sS'trials_1.thisN'
p838
I96
sg46
g60
sg23
g24
sg16
I0
sS'trials_1.thisIndex'
p839
g26
(g62
S'\x01\x00\x00\x00\x00\x00\x00\x00'
tRp840
sS'trials_1.thisTrialN'
p841
I0
sS'trials_1.thisRepN'
p842
I24
sa(dp843
g31
g32
sg14
I0
sg33
g34
sg25
g29
sg17
(lp844
F0.367218017578125
aF0.73666095733642578
asg44
g90
sg45
g91
sg15
(lp845
S'3'
aS'4'
asg43
g93
sg30
g11
sS'trials_1.thisN'
p846
I97
sg46
g60
sg23
g24
sg16
I0
sS'trials_1.thisIndex'
p847
g26
(g62
S'\x03\x00\x00\x00\x00\x00\x00\x00'
tRp848
sS'trials_1.thisTrialN'
p849
I1
sS'trials_1.thisRepN'
p850
I24
sa(dp851
g31
g32
sg14
I1
sg33
g34
sg25
g29
sg17
(lp852
F0.27031493186950684
asg44
g68
sg45
g69
sg15
(lp853
S'3'
asg43
g71
sg30
g11
sS'trials_1.thisN'
p854
I98
sg46
g60
sg23
g24
sg16
I0
sS'trials_1.thisIndex'
p855
g26
(g62
S'\x02\x00\x00\x00\x00\x00\x00\x00'
tRp856
sS'trials_1.thisTrialN'
p857
I2
sS'trials_1.thisRepN'
p858
I24
sa(dp859
g31
g32
sg14
I1
sg33
g34
sg25
g29
sg17
(lp860
F0.35372114181518555
asg44
g79
sg45
g80
sg15
(lp861
S'1'
asg43
g82
sg30
g11
sS'trials_1.thisN'
p862
I99
sg46
g60
sg23
g24
sg16
I0
sS'trials_1.thisIndex'
p863
g26
(g62
S'\x00\x00\x00\x00\x00\x00\x00\x00'
tRp864
sS'trials_1.thisTrialN'
p865
I3
sS'trials_1.thisRepN'
p866
I24
sa(dp867
g31
g32
sg50
Vmin4.png
p868
sg14
I0
sg30
g11
sg33
g34
sS'trials_2.thisRepN'
p869
I0
sS'trials_2.thisTrialN'
p870
I0
sg17
(lp871
F0.00038480758666992188
aF0.36871886253356934
asg25
g29
sg15
(lp872
S'3'
aS'4'
asg47
Vmin1.png
p873
sg48
Vmin2.png
p874
sg49
Vmin3.png
p875
sS'trials_2.thisIndex'
p876
g26
(g62
S'\x00\x00\x00\x00\x00\x00\x00\x00'
tRp877
sS'blank'
p878
VallBlank.png
p879
sg23
g24
sg16
I0
sS'trials_2.thisN'
p880
I0
sa(dp881
g31
g32
sg50
g868
sg14
I0
sg30
g11
sg33
g34
sS'trials_2.thisRepN'
p882
I1
sS'trials_2.thisTrialN'
p883
I0
sg17
(lp884
F0.17788791656494141
aF0.51122879981994629
asg25
g29
sg15
(lp885
S'3'
aS'4'
asg47
g873
sg48
g874
sg49
g875
sS'trials_2.thisIndex'
p886
g26
(g62
S'\x00\x00\x00\x00\x00\x00\x00\x00'
tRp887
sg878
g879
sg23
g24
sg16
I0
sS'trials_2.thisN'
p888
I1
sa(dp889
g31
g32
sg50
g868
sg14
I1
sg30
g11
sg33
g34
sS'trials_2.thisRepN'
p890
I2
sS'trials_2.thisTrialN'
p891
I0
sg17
(lp892
F0.00035405158996582031
asg25
g29
sg15
(lp893
S'4'
asg47
g873
sg48
g874
sg49
g875
sS'trials_2.thisIndex'
p894
g26
(g62
S'\x00\x00\x00\x00\x00\x00\x00\x00'
tRp895
sg878
g879
sg23
g24
sg16
I0
sS'trials_2.thisN'
p896
I2
sa(dp897
g31
g32
sg50
g868
sg14
I0
sg30
g11
sg33
g34
sS'trials_2.thisRepN'
p898
I3
sS'trials_2.thisTrialN'
p899
I0
sg17
(lp900
F0.13629817962646484
aF0.46976304054260254
asg25
g29
sg15
(lp901
S'3'
aS'4'
asg47
g873
sg48
g874
sg49
g875
sS'trials_2.thisIndex'
p902
g26
(g62
S'\x00\x00\x00\x00\x00\x00\x00\x00'
tRp903
sg878
g879
sg23
g24
sg16
I0
sS'trials_2.thisN'
p904
I3
sa(dp905
g31
g32
sg50
g868
sg14
I1
sg30
g11
sg33
g34
sS'trials_2.thisRepN'
p906
I4
sS'trials_2.thisTrialN'
p907
I0
sg17
(lp908
F0.28673005104064941
asg25
g29
sg15
(lp909
S'4'
asg47
g873
sg48
g874
sg49
g875
sS'trials_2.thisIndex'
p910
g26
(g62
S'\x00\x00\x00\x00\x00\x00\x00\x00'
tRp911
sg878
g879
sg23
g24
sg16
I0
sS'trials_2.thisN'
p912
I4
sa(dp913
g31
g32
sg50
g868
sg14
I1
sg30
g11
sg33
g34
sS'trials_2.thisRepN'
p914
I5
sS'trials_2.thisTrialN'
p915
I0
sg17
(lp916
F0.36049294471740723
asg25
g29
sg15
(lp917
S'4'
asg47
g873
sg48
g874
sg49
g875
sS'trials_2.thisIndex'
p918
g26
(g62
S'\x00\x00\x00\x00\x00\x00\x00\x00'
tRp919
sg878
g879
sg23
g24
sg16
I0
sS'trials_2.thisN'
p920
I5
sa(dp921
g31
g32
sg50
g868
sg14
I1
sg30
g11
sg33
g34
sS'trials_2.thisRepN'
p922
I6
sS'trials_2.thisTrialN'
p923
I0
sg17
(lp924
F0.32032918930053711
asg25
g29
sg15
(lp925
S'4'
asg47
g873
sg48
g874
sg49
g875
sS'trials_2.thisIndex'
p926
g26
(g62
S'\x00\x00\x00\x00\x00\x00\x00\x00'
tRp927
sg878
g879
sg23
g24
sg16
I0
sS'trials_2.thisN'
p928
I6
sa(dp929
g31
g32
sg50
g868
sg14
I1
sg30
g11
sg33
g34
sS'trials_2.thisRepN'
p930
I7
sS'trials_2.thisTrialN'
p931
I0
sg17
(lp932
F0.38567996025085449
asg25
g29
sg15
(lp933
S'4'
asg47
g873
sg48
g874
sg49
g875
sS'trials_2.thisIndex'
p934
g26
(g62
S'\x00\x00\x00\x00\x00\x00\x00\x00'
tRp935
sg878
g879
sg23
g24
sg16
I0
sS'trials_2.thisN'
p936
I7
sa(dp937
g31
g32
sg50
g868
sg14
I0
sg30
g11
sg33
g34
sS'trials_2.thisRepN'
p938
I8
sS'trials_2.thisTrialN'
p939
I0
sg17
(lp940
F0.00047397613525390625
aF0.50432801246643066
asg25
g29
sg15
(lp941
S'3'
aS'4'
asg47
g873
sg48
g874
sg49
g875
sS'trials_2.thisIndex'
p942
g26
(g62
S'\x00\x00\x00\x00\x00\x00\x00\x00'
tRp943
sg878
g879
sg23
g24
sg16
I0
sS'trials_2.thisN'
p944
I8
sa(dp945
g31
g32
sg50
g868
sg14
I1
sg30
g11
sg33
g34
sS'trials_2.thisRepN'
p946
I9
sS'trials_2.thisTrialN'
p947
I0
sg17
(lp948
F0.35196900367736816
asg25
g29
sg15
(lp949
S'4'
asg47
g873
sg48
g874
sg49
g875
sS'trials_2.thisIndex'
p950
g26
(g62
S'\x00\x00\x00\x00\x00\x00\x00\x00'
tRp951
sg878
g879
sg23
g24
sg16
I0
sS'trials_2.thisN'
p952
I9
sa(dp953
g31
g32
sg14
I1
sS'trials_3.thisN'
p954
I0
sg33
g34
sS'pawPatrol1'
p955
Vmin1.png
p956
sg17
(lp957
F0.464385986328125
asg25
g29
sg15
(lp958
S'4'
asS'blank'
p959
VallBlank.png
p960
sS'trials_3.thisRepN'
p961
I0
sS'pawPatrol2'
p962
Vmin2.png
p963
sS'pawPatrol3'
p964
Vmin3.png
p965
sS'pawPatrol4'
p966
Vmin4.png
p967
sS'trials_3.thisIndex'
p968
g26
(g62
S'\x00\x00\x00\x00\x00\x00\x00\x00'
tRp969
sg23
g24
sg16
I0
sS'trials_3.thisTrialN'
p970
I0
sg30
g11
sa(dp971
g31
g32
sg14
I0
sS'trials_3.thisN'
p972
I1
sg33
g34
sg955
g956
sg17
(lp973
F0.18680191040039062
aF0.43665480613708496
asg25
g29
sg15
(lp974
S'3'
aS'4'
asg959
g960
sS'trials_3.thisRepN'
p975
I1
sg962
g963
sg964
g965
sg966
g967
sS'trials_3.thisIndex'
p976
g26
(g62
S'\x00\x00\x00\x00\x00\x00\x00\x00'
tRp977
sg23
g24
sg16
I0
sS'trials_3.thisTrialN'
p978
I0
sg30
g11
sa(dp979
g31
g32
sg14
I1
sS'trials_3.thisN'
p980
I2
sg33
g34
sg955
g956
sg17
(lp981
F0.48933291435241699
asg25
g29
sg15
(lp982
S'4'
asg959
g960
sS'trials_3.thisRepN'
p983
I2
sg962
g963
sg964
g965
sg966
g967
sS'trials_3.thisIndex'
p984
g26
(g62
S'\x00\x00\x00\x00\x00\x00\x00\x00'
tRp985
sg23
g24
sg16
I0
sS'trials_3.thisTrialN'
p986
I0
sg30
g11
sa(dp987
g31
g32
sg14
I1
sS'trials_3.thisN'
p988
I3
sg33
g34
sg955
g956
sg17
(lp989
F0.3416600227355957
asg25
g29
sg15
(lp990
S'4'
asg959
g960
sS'trials_3.thisRepN'
p991
I3
sg962
g963
sg964
g965
sg966
g967
sS'trials_3.thisIndex'
p992
g26
(g62
S'\x00\x00\x00\x00\x00\x00\x00\x00'
tRp993
sg23
g24
sg16
I0
sS'trials_3.thisTrialN'
p994
I0
sg30
g11
sa(dp995
g31
g32
sg14
I0
sS'trials_3.thisN'
p996
I4
sg33
g34
sg955
g956
sg17
(lp997
F0.24520206451416016
aF0.3623960018157959
asg25
g29
sg15
(lp998
S'3'
aS'4'
asg959
g960
sS'trials_3.thisRepN'
p999
I4
sg962
g963
sg964
g965
sg966
g967
sS'trials_3.thisIndex'
p1000
g26
(g62
S'\x00\x00\x00\x00\x00\x00\x00\x00'
tRp1001
sg23
g24
sg16
I0
sS'trials_3.thisTrialN'
p1002
I0
sg30
g11
sa(dp1003
g31
g32
sg14
I0
sS'trials_3.thisN'
p1004
I5
sg33
g34
sg955
g956
sg17
(lp1005
F0.18663311004638672
aF0.43692922592163086
asg25
g29
sg15
(lp1006
S'3'
aS'4'
asg959
g960
sS'trials_3.thisRepN'
p1007
I5
sg962
g963
sg964
g965
sg966
g967
sS'trials_3.thisIndex'
p1008
g26
(g62
S'\x00\x00\x00\x00\x00\x00\x00\x00'
tRp1009
sg23
g24
sg16
I0
sS'trials_3.thisTrialN'
p1010
I0
sg30
g11
sa(dp1011
g31
g32
sg14
I1
sS'trials_3.thisN'
p1012
I6
sg33
g34
sg955
g956
sg17
(lp1013
F0.086518049240112305
asg25
g29
sg15
(lp1014
S'4'
asg959
g960
sS'trials_3.thisRepN'
p1015
I6
sg962
g963
sg964
g965
sg966
g967
sS'trials_3.thisIndex'
p1016
g26
(g62
S'\x00\x00\x00\x00\x00\x00\x00\x00'
tRp1017
sg23
g24
sg16
I0
sS'trials_3.thisTrialN'
p1018
I0
sg30
g11
sa(dp1019
g31
g32
sg14
I0
sS'trials_3.thisN'
p1020
I7
sg33
g34
sg955
g956
sg17
(lp1021
F0.26929497718811035
aF0.35316991806030273
asg25
g29
sg15
(lp1022
S'3'
aS'4'
asg959
g960
sS'trials_3.thisRepN'
p1023
I7
sg962
g963
sg964
g965
sg966
g967
sS'trials_3.thisIndex'
p1024
g26
(g62
S'\x00\x00\x00\x00\x00\x00\x00\x00'
tRp1025
sg23
g24
sg16
I0
sS'trials_3.thisTrialN'
p1026
I0
sg30
g11
sa(dp1027
g31
g32
sg14
I0
sS'trials_3.thisN'
p1028
I8
sg33
g34
sg955
g956
sg17
(lp1029
F0.00038003921508789062
aF0.4769740104675293
asg25
g29
sg15
(lp1030
S'3'
aS'4'
asg959
g960
sS'trials_3.thisRepN'
p1031
I8
sg962
g963
sg964
g965
sg966
g967
sS'trials_3.thisIndex'
p1032
g26
(g62
S'\x00\x00\x00\x00\x00\x00\x00\x00'
tRp1033
sg23
g24
sg16
I0
sS'trials_3.thisTrialN'
p1034
I0
sg30
g11
sa(dp1035
g31
g32
sg14
I0
sS'trials_3.thisN'
p1036
I9
sg33
g34
sg955
g956
sg17
(lp1037
F0.26278519630432129
aF0.47952699661254883
asg25
g29
sg15
(lp1038
S'3'
aS'4'
asg959
g960
sS'trials_3.thisRepN'
p1039
I9
sg962
g963
sg964
g965
sg966
g967
sS'trials_3.thisIndex'
p1040
g26
(g62
S'\x00\x00\x00\x00\x00\x00\x00\x00'
tRp1041
sg23
g24
sg16
I0
sS'trials_3.thisTrialN'
p1042
I0
sg30
g11
sa(dp1043
g31
g32
sg14
I1
sg33
g34
sS'trials_4.thisRepN'
p1044
I0
sg25
g29
sS'trials_4.thisIndex'
p1045
g26
(g62
S'\x03\x00\x00\x00\x00\x00\x00\x00'
tRp1046
sg17
(lp1047
F0.45345592498779297
asS'allowableKey'
p1048
(lp1049
S'2'
aS'1'
aS'3'
aS'4'
asS'correctKey'
p1050
(lp1051
S'4'
asg15
(lp1052
S'4'
asS'randomPaw'
p1053
Vmin4.png
p1054
sg30
g11
sS'blank'
p1055
VallBlank.png
p1056
sg23
g24
sg16
I0
sS'trials_4.thisN'
p1057
I0
sS'trials_4.thisTrialN'
p1058
I0
sa(dp1059
g31
g32
sg14
I1
sg33
g34
sS'trials_4.thisRepN'
p1060
I0
sg25
g29
sS'trials_4.thisIndex'
p1061
g26
(g62
S'\x02\x00\x00\x00\x00\x00\x00\x00'
tRp1062
sg17
(lp1063
F0.3283989429473877
asg1048
(lp1064
S'2'
aS'1'
aS'3'
aS'4'
asg1050
(lp1065
S'3'
asg15
(lp1066
S'3'
asg1053
Vmin3.png
p1067
sg30
g11
sg1055
g1056
sg23
g24
sg16
I0
sS'trials_4.thisN'
p1068
I1
sS'trials_4.thisTrialN'
p1069
I1
sa(dp1070
g31
g32
sg14
I0
sg33
g34
sS'trials_4.thisRepN'
p1071
I0
sg25
g29
sS'trials_4.thisIndex'
p1072
g26
(g62
S'\x00\x00\x00\x00\x00\x00\x00\x00'
tRp1073
sg17
(lp1074
F0.22053217887878418
aF0.45347213745117188
asg1048
(lp1075
S'2'
aS'1'
aS'3'
aS'4'
asg1050
(lp1076
S'1'
asg15
(lp1077
S'2'
aS'1'
asg1053
Vmin1.png
p1078
sg30
g11
sg1055
g1056
sg23
g24
sg16
I0
sS'trials_4.thisN'
p1079
I2
sS'trials_4.thisTrialN'
p1080
I2
sa(dp1081
g31
g32
sg14
I1
sg33
g34
sS'trials_4.thisRepN'
p1082
I0
sg25
g29
sS'trials_4.thisIndex'
p1083
g26
(g62
S'\x01\x00\x00\x00\x00\x00\x00\x00'
tRp1084
sg17
(lp1085
F0.29964900016784668
asg1048
(lp1086
S'2'
aS'1'
aS'3'
aS'4'
asg1050
(lp1087
S'2'
asg15
(lp1088
S'2'
asg1053
Vmin2.png
p1089
sg30
g11
sg1055
g1056
sg23
g24
sg16
I0
sS'trials_4.thisN'
p1090
I3
sS'trials_4.thisTrialN'
p1091
I3
sa(dp1092
g31
g32
sg14
I1
sg33
g34
sS'trials_4.thisRepN'
p1093
I1
sg25
g29
sS'trials_4.thisIndex'
p1094
g26
(g62
S'\x00\x00\x00\x00\x00\x00\x00\x00'
tRp1095
sg17
(lp1096
F0.50384283065795898
asg1048
g1075
sg1050
g1076
sg15
(lp1097
S'1'
asg1053
g1078
sg30
g11
sg1055
g1056
sg23
g24
sg16
I0
sS'trials_4.thisN'
p1098
I4
sS'trials_4.thisTrialN'
p1099
I0
sa(dp1100
g31
g32
sg14
I1
sg33
g34
sS'trials_4.thisRepN'
p1101
I1
sg25
g29
sS'trials_4.thisIndex'
p1102
g26
(g62
S'\x01\x00\x00\x00\x00\x00\x00\x00'
tRp1103
sg17
(lp1104
F0.42021679878234863
asg1048
g1086
sg1050
g1087
sg15
(lp1105
S'2'
asg1053
g1089
sg30
g11
sg1055
g1056
sg23
g24
sg16
I0
sS'trials_4.thisN'
p1106
I5
sS'trials_4.thisTrialN'
p1107
I1
sa(dp1108
g31
g32
sg14
I1
sg33
g34
sS'trials_4.thisRepN'
p1109
I1
sg25
g29
sS'trials_4.thisIndex'
p1110
g26
(g62
S'\x03\x00\x00\x00\x00\x00\x00\x00'
tRp1111
sg17
(lp1112
F0.35044002532958984
asg1048
g1049
sg1050
g1051
sg15
(lp1113
S'4'
asg1053
g1054
sg30
g11
sg1055
g1056
sg23
g24
sg16
I0
sS'trials_4.thisN'
p1114
I6
sS'trials_4.thisTrialN'
p1115
I2
sa(dp1116
g31
g32
sg14
I1
sg33
g34
sS'trials_4.thisRepN'
p1117
I1
sg25
g29
sS'trials_4.thisIndex'
p1118
g26
(g62
S'\x02\x00\x00\x00\x00\x00\x00\x00'
tRp1119
sg17
(lp1120
F0.318878173828125
asg1048
g1064
sg1050
g1065
sg15
(lp1121
S'3'
asg1053
g1067
sg30
g11
sg1055
g1056
sg23
g24
sg16
I0
sS'trials_4.thisN'
p1122
I7
sS'trials_4.thisTrialN'
p1123
I3
sa(dp1124
g31
g32
sg14
I0
sg33
g34
sS'trials_4.thisRepN'
p1125
I2
sg25
g29
sS'trials_4.thisIndex'
p1126
g26
(g62
S'\x03\x00\x00\x00\x00\x00\x00\x00'
tRp1127
sg17
(lp1128
F0.16989707946777344
aF0.43657112121582031
asg1048
g1049
sg1050
g1051
sg15
(lp1129
S'2'
aS'4'
asg1053
g1054
sg30
g11
sg1055
g1056
sg23
g24
sg16
I0
sS'trials_4.thisN'
p1130
I8
sS'trials_4.thisTrialN'
p1131
I0
sa(dp1132
g31
g32
sg14
I1
sg33
g34
sS'trials_4.thisRepN'
p1133
I2
sg25
g29
sS'trials_4.thisIndex'
p1134
g26
(g62
S'\x00\x00\x00\x00\x00\x00\x00\x00'
tRp1135
sg17
(lp1136
F0.28702998161315918
asg1048
g1075
sg1050
g1076
sg15
(lp1137
S'1'
asg1053
g1078
sg30
g11
sg1055
g1056
sg23
g24
sg16
I0
sS'trials_4.thisN'
p1138
I9
sS'trials_4.thisTrialN'
p1139
I1
sa(dp1140
g31
g32
sg14
I1
sg33
g34
sS'trials_4.thisRepN'
p1141
I2
sg25
g29
sS'trials_4.thisIndex'
p1142
g26
(g62
S'\x02\x00\x00\x00\x00\x00\x00\x00'
tRp1143
sg17
(lp1144
F0.21913599967956543
asg1048
g1064
sg1050
g1065
sg15
(lp1145
S'3'
asg1053
g1067
sg30
g11
sg1055
g1056
sg23
g24
sg16
I0
sS'trials_4.thisN'
p1146
I10
sS'trials_4.thisTrialN'
p1147
I2
sa(dp1148
g31
g32
sg14
I1
sg33
g34
sS'trials_4.thisRepN'
p1149
I2
sg25
g29
sS'trials_4.thisIndex'
p1150
g26
(g62
S'\x01\x00\x00\x00\x00\x00\x00\x00'
tRp1151
sg17
(lp1152
F0.25333404541015625
asg1048
g1086
sg1050
g1087
sg15
(lp1153
S'2'
asg1053
g1089
sg30
g11
sg1055
g1056
sg23
g24
sg16
I0
sS'trials_4.thisN'
p1154
I11
sS'trials_4.thisTrialN'
p1155
I3
sa(dp1156
g31
g32
sg14
I1
sg33
g34
sS'trials_4.thisRepN'
p1157
I3
sg25
g29
sS'trials_4.thisIndex'
p1158
g26
(g62
S'\x02\x00\x00\x00\x00\x00\x00\x00'
tRp1159
sg17
(lp1160
F0.53753018379211426
asg1048
g1064
sg1050
g1065
sg15
(lp1161
S'3'
asg1053
g1067
sg30
g11
sg1055
g1056
sg23
g24
sg16
I0
sS'trials_4.thisN'
p1162
I12
sS'trials_4.thisTrialN'
p1163
I0
sa(dp1164
g31
g32
sg14
I1
sg33
g34
sS'trials_4.thisRepN'
p1165
I3
sg25
g29
sS'trials_4.thisIndex'
p1166
g26
(g62
S'\x00\x00\x00\x00\x00\x00\x00\x00'
tRp1167
sg17
(lp1168
F0.37039494514465332
asg1048
g1075
sg1050
g1076
sg15
(lp1169
S'1'
asg1053
g1078
sg30
g11
sg1055
g1056
sg23
g24
sg16
I0
sS'trials_4.thisN'
p1170
I13
sS'trials_4.thisTrialN'
p1171
I1
sa(dp1172
g31
g32
sg14
I1
sg33
g34
sS'trials_4.thisRepN'
p1173
I3
sg25
g29
sS'trials_4.thisIndex'
p1174
g26
(g62
S'\x01\x00\x00\x00\x00\x00\x00\x00'
tRp1175
sg17
(lp1176
F0.33832383155822754
asg1048
g1086
sg1050
g1087
sg15
(lp1177
S'2'
asg1053
g1089
sg30
g11
sg1055
g1056
sg23
g24
sg16
I0
sS'trials_4.thisN'
p1178
I14
sS'trials_4.thisTrialN'
p1179
I2
sa(dp1180
g31
g32
sg14
I1
sg33
g34
sS'trials_4.thisRepN'
p1181
I3
sg25
g29
sS'trials_4.thisIndex'
p1182
g26
(g62
S'\x03\x00\x00\x00\x00\x00\x00\x00'
tRp1183
sg17
(lp1184
F0.30605602264404297
asg1048
g1049
sg1050
g1051
sg15
(lp1185
S'4'
asg1053
g1054
sg30
g11
sg1055
g1056
sg23
g24
sg16
I0
sS'trials_4.thisN'
p1186
I15
sS'trials_4.thisTrialN'
p1187
I3
sa(dp1188
g31
g32
sg14
I1
sg33
g34
sS'trials_4.thisRepN'
p1189
I4
sg25
g29
sS'trials_4.thisIndex'
p1190
g26
(g62
S'\x00\x00\x00\x00\x00\x00\x00\x00'
tRp1191
sg17
(lp1192
F0.33917093276977539
asg1048
g1075
sg1050
g1076
sg15
(lp1193
S'1'
asg1053
g1078
sg30
g11
sg1055
g1056
sg23
g24
sg16
I0
sS'trials_4.thisN'
p1194
I16
sS'trials_4.thisTrialN'
p1195
I0
sa(dp1196
g31
g32
sg14
I0
sg33
g34
sS'trials_4.thisRepN'
p1197
I4
sg25
g29
sS'trials_4.thisIndex'
p1198
g26
(g62
S'\x01\x00\x00\x00\x00\x00\x00\x00'
tRp1199
sg17
(lp1200
F0.18636202812194824
aF0.53368902206420898
asg1048
g1086
sg1050
g1087
sg15
(lp1201
S'3'
aS'2'
asg1053
g1089
sg30
g11
sg1055
g1056
sg23
g24
sg16
I0
sS'trials_4.thisN'
p1202
I17
sS'trials_4.thisTrialN'
p1203
I1
sa(dp1204
g31
g32
sg14
I1
sg33
g34
sS'trials_4.thisRepN'
p1205
I4
sg25
g29
sS'trials_4.thisIndex'
p1206
g26
(g62
S'\x03\x00\x00\x00\x00\x00\x00\x00'
tRp1207
sg17
(lp1208
F0.30393791198730469
asg1048
g1049
sg1050
g1051
sg15
(lp1209
S'4'
asg1053
g1054
sg30
g11
sg1055
g1056
sg23
g24
sg16
I0
sS'trials_4.thisN'
p1210
I18
sS'trials_4.thisTrialN'
p1211
I2
sa(dp1212
g31
g32
sg14
I1
sg33
g34
sS'trials_4.thisRepN'
p1213
I4
sg25
g29
sS'trials_4.thisIndex'
p1214
g26
(g62
S'\x02\x00\x00\x00\x00\x00\x00\x00'
tRp1215
sg17
(lp1216
F0.35372304916381836
asg1048
g1064
sg1050
g1065
sg15
(lp1217
S'3'
asg1053
g1067
sg30
g11
sg1055
g1056
sg23
g24
sg16
I0
sS'trials_4.thisN'
p1218
I19
sS'trials_4.thisTrialN'
p1219
I3
sa(dp1220
g31
g32
sg14
I1
sg33
g34
sS'trials_4.thisRepN'
p1221
I5
sg25
g29
sS'trials_4.thisIndex'
p1222
g26
(g62
S'\x00\x00\x00\x00\x00\x00\x00\x00'
tRp1223
sg17
(lp1224
F0.35260701179504395
asg1048
g1075
sg1050
g1076
sg15
(lp1225
S'1'
asg1053
g1078
sg30
g11
sg1055
g1056
sg23
g24
sg16
I0
sS'trials_4.thisN'
p1226
I20
sS'trials_4.thisTrialN'
p1227
I0
sa(dp1228
g31
g32
sg14
I1
sg33
g34
sS'trials_4.thisRepN'
p1229
I5
sg25
g29
sS'trials_4.thisIndex'
p1230
g26
(g62
S'\x03\x00\x00\x00\x00\x00\x00\x00'
tRp1231
sg17
(lp1232
F0.35362720489501953
asg1048
g1049
sg1050
g1051
sg15
(lp1233
S'4'
asg1053
g1054
sg30
g11
sg1055
g1056
sg23
g24
sg16
I0
sS'trials_4.thisN'
p1234
I21
sS'trials_4.thisTrialN'
p1235
I1
sa(dp1236
g31
g32
sg14
I1
sg33
g34
sS'trials_4.thisRepN'
p1237
I5
sg25
g29
sS'trials_4.thisIndex'
p1238
g26
(g62
S'\x01\x00\x00\x00\x00\x00\x00\x00'
tRp1239
sg17
(lp1240
F0.25303101539611816
asg1048
g1086
sg1050
g1087
sg15
(lp1241
S'2'
asg1053
g1089
sg30
g11
sg1055
g1056
sg23
g24
sg16
I0
sS'trials_4.thisN'
p1242
I22
sS'trials_4.thisTrialN'
p1243
I2
sa(dp1244
g31
g32
sg14
I1
sg33
g34
sS'trials_4.thisRepN'
p1245
I5
sg25
g29
sS'trials_4.thisIndex'
p1246
g26
(g62
S'\x02\x00\x00\x00\x00\x00\x00\x00'
tRp1247
sg17
(lp1248
F0.22090387344360352
asg1048
g1064
sg1050
g1065
sg15
(lp1249
S'3'
asg1053
g1067
sg30
g11
sg1055
g1056
sg23
g24
sg16
I0
sS'trials_4.thisN'
p1250
I23
sS'trials_4.thisTrialN'
p1251
I3
sa(dp1252
g31
g32
sg14
I1
sg33
g34
sS'trials_4.thisRepN'
p1253
I6
sg25
g29
sS'trials_4.thisIndex'
p1254
g26
(g62
S'\x01\x00\x00\x00\x00\x00\x00\x00'
tRp1255
sg17
(lp1256
F0.38984298706054688
asg1048
g1086
sg1050
g1087
sg15
(lp1257
S'2'
asg1053
g1089
sg30
g11
sg1055
g1056
sg23
g24
sg16
I0
sS'trials_4.thisN'
p1258
I24
sS'trials_4.thisTrialN'
p1259
I0
sa(dp1260
g31
g32
sg14
I1
sg33
g34
sS'trials_4.thisRepN'
p1261
I6
sg25
g29
sS'trials_4.thisIndex'
p1262
g26
(g62
S'\x00\x00\x00\x00\x00\x00\x00\x00'
tRp1263
sg17
(lp1264
F0.34238100051879883
asg1048
g1075
sg1050
g1076
sg15
(lp1265
S'1'
asg1053
g1078
sg30
g11
sg1055
g1056
sg23
g24
sg16
I0
sS'trials_4.thisN'
p1266
I25
sS'trials_4.thisTrialN'
p1267
I1
sa(dp1268
g31
g32
sg14
I1
sg33
g34
sS'trials_4.thisRepN'
p1269
I6
sg25
g29
sS'trials_4.thisIndex'
p1270
g26
(g62
S'\x02\x00\x00\x00\x00\x00\x00\x00'
tRp1271
sg17
(lp1272
F0.27724003791809082
asg1048
g1064
sg1050
g1065
sg15
(lp1273
S'3'
asg1053
g1067
sg30
g11
sg1055
g1056
sg23
g24
sg16
I0
sS'trials_4.thisN'
p1274
I26
sS'trials_4.thisTrialN'
p1275
I2
sa(dp1276
g31
g32
sg14
I1
sg33
g34
sS'trials_4.thisRepN'
p1277
I6
sg25
g29
sS'trials_4.thisIndex'
p1278
g26
(g62
S'\x03\x00\x00\x00\x00\x00\x00\x00'
tRp1279
sg17
(lp1280
F0.51077604293823242
asg1048
g1049
sg1050
g1051
sg15
(lp1281
S'4'
asg1053
g1054
sg30
g11
sg1055
g1056
sg23
g24
sg16
I0
sS'trials_4.thisN'
p1282
I27
sS'trials_4.thisTrialN'
p1283
I3
sa(dp1284
g31
g32
sg14
I1
sg33
g34
sS'trials_4.thisRepN'
p1285
I7
sg25
g29
sS'trials_4.thisIndex'
p1286
g26
(g62
S'\x03\x00\x00\x00\x00\x00\x00\x00'
tRp1287
sg17
(lp1288
F0.39415812492370605
asg1048
g1049
sg1050
g1051
sg15
(lp1289
S'4'
asg1053
g1054
sg30
g11
sg1055
g1056
sg23
g24
sg16
I0
sS'trials_4.thisN'
p1290
I28
sS'trials_4.thisTrialN'
p1291
I0
sa(dp1292
g31
g32
sg14
I1
sg33
g34
sS'trials_4.thisRepN'
p1293
I7
sg25
g29
sS'trials_4.thisIndex'
p1294
g26
(g62
S'\x01\x00\x00\x00\x00\x00\x00\x00'
tRp1295
sg17
(lp1296
F0.27814292907714844
asg1048
g1086
sg1050
g1087
sg15
(lp1297
S'2'
asg1053
g1089
sg30
g11
sg1055
g1056
sg23
g24
sg16
I0
sS'trials_4.thisN'
p1298
I29
sS'trials_4.thisTrialN'
p1299
I1
sa(dp1300
g31
g32
sg14
I1
sg33
g34
sS'trials_4.thisRepN'
p1301
I7
sg25
g29
sS'trials_4.thisIndex'
p1302
g26
(g62
S'\x00\x00\x00\x00\x00\x00\x00\x00'
tRp1303
sg17
(lp1304
F0.36248683929443359
asg1048
g1075
sg1050
g1076
sg15
(lp1305
S'1'
asg1053
g1078
sg30
g11
sg1055
g1056
sg23
g24
sg16
I0
sS'trials_4.thisN'
p1306
I30
sS'trials_4.thisTrialN'
p1307
I2
sa(dp1308
g31
g32
sg14
I1
sg33
g34
sS'trials_4.thisRepN'
p1309
I7
sg25
g29
sS'trials_4.thisIndex'
p1310
g26
(g62
S'\x02\x00\x00\x00\x00\x00\x00\x00'
tRp1311
sg17
(lp1312
F0.17583584785461426
asg1048
g1064
sg1050
g1065
sg15
(lp1313
S'3'
asg1053
g1067
sg30
g11
sg1055
g1056
sg23
g24
sg16
I0
sS'trials_4.thisN'
p1314
I31
sS'trials_4.thisTrialN'
p1315
I3
sa(dp1316
g31
g32
sg14
I1
sg33
g34
sS'trials_4.thisRepN'
p1317
I8
sg25
g29
sS'trials_4.thisIndex'
p1318
g26
(g62
S'\x01\x00\x00\x00\x00\x00\x00\x00'
tRp1319
sg17
(lp1320
F0.11240100860595703
asg1048
g1086
sg1050
g1087
sg15
(lp1321
S'2'
asg1053
g1089
sg30
g11
sg1055
g1056
sg23
g24
sg16
I0
sS'trials_4.thisN'
p1322
I32
sS'trials_4.thisTrialN'
p1323
I0
sa(dp1324
g31
g32
sg14
I1
sg33
g34
sS'trials_4.thisRepN'
p1325
I8
sg25
g29
sS'trials_4.thisIndex'
p1326
g26
(g62
S'\x03\x00\x00\x00\x00\x00\x00\x00'
tRp1327
sg17
(lp1328
F0.29668498039245605
asg1048
g1049
sg1050
g1051
sg15
(lp1329
S'4'
asg1053
g1054
sg30
g11
sg1055
g1056
sg23
g24
sg16
I0
sS'trials_4.thisN'
p1330
I33
sS'trials_4.thisTrialN'
p1331
I1
sa(dp1332
g31
g32
sg14
I1
sg33
g34
sS'trials_4.thisRepN'
p1333
I8
sg25
g29
sS'trials_4.thisIndex'
p1334
g26
(g62
S'\x02\x00\x00\x00\x00\x00\x00\x00'
tRp1335
sg17
(lp1336
F0.39706087112426758
asg1048
g1064
sg1050
g1065
sg15
(lp1337
S'3'
asg1053
g1067
sg30
g11
sg1055
g1056
sg23
g24
sg16
I0
sS'trials_4.thisN'
p1338
I34
sS'trials_4.thisTrialN'
p1339
I2
sa(dp1340
g31
g32
sg14
I1
sg33
g34
sS'trials_4.thisRepN'
p1341
I8
sg25
g29
sS'trials_4.thisIndex'
p1342
g26
(g62
S'\x00\x00\x00\x00\x00\x00\x00\x00'
tRp1343
sg17
(lp1344
F0.26211094856262207
asg1048
g1075
sg1050
g1076
sg15
(lp1345
S'1'
asg1053
g1078
sg30
g11
sg1055
g1056
sg23
g24
sg16
I0
sS'trials_4.thisN'
p1346
I35
sS'trials_4.thisTrialN'
p1347
I3
sa(dp1348
g31
g32
sg14
I1
sg33
g34
sS'trials_4.thisRepN'
p1349
I9
sg25
g29
sS'trials_4.thisIndex'
p1350
g26
(g62
S'\x03\x00\x00\x00\x00\x00\x00\x00'
tRp1351
sg17
(lp1352
F0.34670281410217285
asg1048
g1049
sg1050
g1051
sg15
(lp1353
S'4'
asg1053
g1054
sg30
g11
sg1055
g1056
sg23
g24
sg16
I0
sS'trials_4.thisN'
p1354
I36
sS'trials_4.thisTrialN'
p1355
I0
sa(dp1356
g31
g32
sg14
I0
sg33
g34
sS'trials_4.thisRepN'
p1357
I9
sg25
g29
sS'trials_4.thisIndex'
p1358
g26
(g62
S'\x02\x00\x00\x00\x00\x00\x00\x00'
tRp1359
sg17
(lp1360
F0.36432194709777832
aF0.71196699142456055
asg1048
g1064
sg1050
g1065
sg15
(lp1361
S'4'
aS'3'
asg1053
g1067
sg30
g11
sg1055
g1056
sg23
g24
sg16
I0
sS'trials_4.thisN'
p1362
I37
sS'trials_4.thisTrialN'
p1363
I1
sa(dp1364
g31
g32
sg14
I1
sg33
g34
sS'trials_4.thisRepN'
p1365
I9
sg25
g29
sS'trials_4.thisIndex'
p1366
g26
(g62
S'\x00\x00\x00\x00\x00\x00\x00\x00'
tRp1367
sg17
(lp1368
F0.34650397300720215
asg1048
g1075
sg1050
g1076
sg15
(lp1369
S'1'
asg1053
g1078
sg30
g11
sg1055
g1056
sg23
g24
sg16
I0
sS'trials_4.thisN'
p1370
I38
sS'trials_4.thisTrialN'
p1371
I2
sa(dp1372
g31
g32
sg14
I1
sg33
g34
sS'trials_4.thisRepN'
p1373
I9
sg25
g29
sS'trials_4.thisIndex'
p1374
g26
(g62
S'\x01\x00\x00\x00\x00\x00\x00\x00'
tRp1375
sg17
(lp1376
F0.39696812629699707
asg1048
g1086
sg1050
g1087
sg15
(lp1377
S'2'
asg1053
g1089
sg30
g11
sg1055
g1056
sg23
g24
sg16
I0
sS'trials_4.thisN'
p1378
I39
sS'trials_4.thisTrialN'
p1379
I3
sa(dp1380
g31
g32
sg14
I1
sg33
g34
sS'trials_4.thisRepN'
p1381
I10
sg25
g29
sS'trials_4.thisIndex'
p1382
g26
(g62
S'\x03\x00\x00\x00\x00\x00\x00\x00'
tRp1383
sg17
(lp1384
F0.37806105613708496
asg1048
g1049
sg1050
g1051
sg15
(lp1385
S'4'
asg1053
g1054
sg30
g11
sg1055
g1056
sg23
g24
sg16
I0
sS'trials_4.thisN'
p1386
I40
sS'trials_4.thisTrialN'
p1387
I0
sa(dp1388
g31
g32
sg14
I1
sg33
g34
sS'trials_4.thisRepN'
p1389
I10
sg25
g29
sS'trials_4.thisIndex'
p1390
g26
(g62
S'\x02\x00\x00\x00\x00\x00\x00\x00'
tRp1391
sg17
(lp1392
F0.34748506546020508
asg1048
g1064
sg1050
g1065
sg15
(lp1393
S'3'
asg1053
g1067
sg30
g11
sg1055
g1056
sg23
g24
sg16
I0
sS'trials_4.thisN'
p1394
I41
sS'trials_4.thisTrialN'
p1395
I1
sa(dp1396
g31
g32
sg14
I1
sg33
g34
sS'trials_4.thisRepN'
p1397
I10
sg25
g29
sS'trials_4.thisIndex'
p1398
g26
(g62
S'\x01\x00\x00\x00\x00\x00\x00\x00'
tRp1399
sg17
(lp1400
F0.33167910575866699
asg1048
g1086
sg1050
g1087
sg15
(lp1401
S'2'
asg1053
g1089
sg30
g11
sg1055
g1056
sg23
g24
sg16
I0
sS'trials_4.thisN'
p1402
I42
sS'trials_4.thisTrialN'
p1403
I2
sa(dp1404
g31
g32
sg14
I1
sg33
g34
sS'trials_4.thisRepN'
p1405
I10
sg25
g29
sS'trials_4.thisIndex'
p1406
g26
(g62
S'\x00\x00\x00\x00\x00\x00\x00\x00'
tRp1407
sg17
(lp1408
F0.28376483917236328
asg1048
g1075
sg1050
g1076
sg15
(lp1409
S'1'
asg1053
g1078
sg30
g11
sg1055
g1056
sg23
g24
sg16
I0
sS'trials_4.thisN'
p1410
I43
sS'trials_4.thisTrialN'
p1411
I3
sa(dp1412
g31
g32
sg14
I1
sg33
g34
sS'trials_4.thisRepN'
p1413
I11
sg25
g29
sS'trials_4.thisIndex'
p1414
g26
(g62
S'\x00\x00\x00\x00\x00\x00\x00\x00'
tRp1415
sg17
(lp1416
F0.40377092361450195
asg1048
g1075
sg1050
g1076
sg15
(lp1417
S'1'
asg1053
g1078
sg30
g11
sg1055
g1056
sg23
g24
sg16
I0
sS'trials_4.thisN'
p1418
I44
sS'trials_4.thisTrialN'
p1419
I0
sa(dp1420
g31
g32
sg14
I1
sg33
g34
sS'trials_4.thisRepN'
p1421
I11
sg25
g29
sS'trials_4.thisIndex'
p1422
g26
(g62
S'\x03\x00\x00\x00\x00\x00\x00\x00'
tRp1423
sg17
(lp1424
F0.33672308921813965
asg1048
g1049
sg1050
g1051
sg15
(lp1425
S'4'
asg1053
g1054
sg30
g11
sg1055
g1056
sg23
g24
sg16
I0
sS'trials_4.thisN'
p1426
I45
sS'trials_4.thisTrialN'
p1427
I1
sa(dp1428
g31
g32
sg14
I1
sg33
g34
sS'trials_4.thisRepN'
p1429
I11
sg25
g29
sS'trials_4.thisIndex'
p1430
g26
(g62
S'\x02\x00\x00\x00\x00\x00\x00\x00'
tRp1431
sg17
(lp1432
F0.3699188232421875
asg1048
g1064
sg1050
g1065
sg15
(lp1433
S'3'
asg1053
g1067
sg30
g11
sg1055
g1056
sg23
g24
sg16
I0
sS'trials_4.thisN'
p1434
I46
sS'trials_4.thisTrialN'
p1435
I2
sa(dp1436
g31
g32
sg14
I1
sg33
g34
sS'trials_4.thisRepN'
p1437
I11
sg25
g29
sS'trials_4.thisIndex'
p1438
g26
(g62
S'\x01\x00\x00\x00\x00\x00\x00\x00'
tRp1439
sg17
(lp1440
F0.30305218696594238
asg1048
g1086
sg1050
g1087
sg15
(lp1441
S'2'
asg1053
g1089
sg30
g11
sg1055
g1056
sg23
g24
sg16
I0
sS'trials_4.thisN'
p1442
I47
sS'trials_4.thisTrialN'
p1443
I3
sa(dp1444
g31
g32
sg14
I1
sg33
g34
sS'trials_4.thisRepN'
p1445
I12
sg25
g29
sS'trials_4.thisIndex'
p1446
g26
(g62
S'\x02\x00\x00\x00\x00\x00\x00\x00'
tRp1447
sg17
(lp1448
F0.37053394317626953
asg1048
g1064
sg1050
g1065
sg15
(lp1449
S'3'
asg1053
g1067
sg30
g11
sg1055
g1056
sg23
g24
sg16
I0
sS'trials_4.thisN'
p1450
I48
sS'trials_4.thisTrialN'
p1451
I0
sa(dp1452
g31
g32
sg14
I1
sg33
g34
sS'trials_4.thisRepN'
p1453
I12
sg25
g29
sS'trials_4.thisIndex'
p1454
g26
(g62
S'\x00\x00\x00\x00\x00\x00\x00\x00'
tRp1455
sg17
(lp1456
F0.32009506225585938
asg1048
g1075
sg1050
g1076
sg15
(lp1457
S'1'
asg1053
g1078
sg30
g11
sg1055
g1056
sg23
g24
sg16
I0
sS'trials_4.thisN'
p1458
I49
sS'trials_4.thisTrialN'
p1459
I1
sa(dp1460
g31
g32
sg14
I1
sg33
g34
sS'trials_4.thisRepN'
p1461
I12
sg25
g29
sS'trials_4.thisIndex'
p1462
g26
(g62
S'\x01\x00\x00\x00\x00\x00\x00\x00'
tRp1463
sg17
(lp1464
F0.40065407752990723
asg1048
g1086
sg1050
g1087
sg15
(lp1465
S'2'
asg1053
g1089
sg30
g11
sg1055
g1056
sg23
g24
sg16
I0
sS'trials_4.thisN'
p1466
I50
sS'trials_4.thisTrialN'
p1467
I2
sa(dp1468
g31
g32
sg14
I1
sg33
g34
sS'trials_4.thisRepN'
p1469
I12
sg25
g29
sS'trials_4.thisIndex'
p1470
g26
(g62
S'\x03\x00\x00\x00\x00\x00\x00\x00'
tRp1471
sg17
(lp1472
F0.32054996490478516
asg1048
g1049
sg1050
g1051
sg15
(lp1473
S'4'
asg1053
g1054
sg30
g11
sg1055
g1056
sg23
g24
sg16
I0
sS'trials_4.thisN'
p1474
I51
sS'trials_4.thisTrialN'
p1475
I3
sa(dp1476
g31
g32
sg14
I1
sg33
g34
sS'trials_4.thisRepN'
p1477
I13
sg25
g29
sS'trials_4.thisIndex'
p1478
g26
(g62
S'\x01\x00\x00\x00\x00\x00\x00\x00'
tRp1479
sg17
(lp1480
F0.40343785285949707
asg1048
g1086
sg1050
g1087
sg15
(lp1481
S'2'
asg1053
g1089
sg30
g11
sg1055
g1056
sg23
g24
sg16
I0
sS'trials_4.thisN'
p1482
I52
sS'trials_4.thisTrialN'
p1483
I0
sa(dp1484
g31
g32
sg14
I1
sg33
g34
sS'trials_4.thisRepN'
p1485
I13
sg25
g29
sS'trials_4.thisIndex'
p1486
g26
(g62
S'\x00\x00\x00\x00\x00\x00\x00\x00'
tRp1487
sg17
(lp1488
F0.38808894157409668
asg1048
g1075
sg1050
g1076
sg15
(lp1489
S'1'
asg1053
g1078
sg30
g11
sg1055
g1056
sg23
g24
sg16
I0
sS'trials_4.thisN'
p1490
I53
sS'trials_4.thisTrialN'
p1491
I1
sa(dp1492
g31
g32
sg14
I1
sg33
g34
sS'trials_4.thisRepN'
p1493
I13
sg25
g29
sS'trials_4.thisIndex'
p1494
g26
(g62
S'\x03\x00\x00\x00\x00\x00\x00\x00'
tRp1495
sg17
(lp1496
F0.40515398979187012
asg1048
g1049
sg1050
g1051
sg15
(lp1497
S'4'
asg1053
g1054
sg30
g11
sg1055
g1056
sg23
g24
sg16
I0
sS'trials_4.thisN'
p1498
I54
sS'trials_4.thisTrialN'
p1499
I2
sa(dp1500
g31
g32
sg14
I1
sg33
g34
sS'trials_4.thisRepN'
p1501
I13
sg25
g29
sS'trials_4.thisIndex'
p1502
g26
(g62
S'\x02\x00\x00\x00\x00\x00\x00\x00'
tRp1503
sg17
(lp1504
F0.42246484756469727
asg1048
g1064
sg1050
g1065
sg15
(lp1505
S'3'
asg1053
g1067
sg30
g11
sg1055
g1056
sg23
g24
sg16
I0
sS'trials_4.thisN'
p1506
I55
sS'trials_4.thisTrialN'
p1507
I3
sa(dp1508
g31
g32
sg14
I1
sg33
g34
sS'trials_4.thisRepN'
p1509
I14
sg25
g29
sS'trials_4.thisIndex'
p1510
g26
(g62
S'\x03\x00\x00\x00\x00\x00\x00\x00'
tRp1511
sg17
(lp1512
F0.40054011344909668
asg1048
g1049
sg1050
g1051
sg15
(lp1513
S'4'
asg1053
g1054
sg30
g11
sg1055
g1056
sg23
g24
sg16
I0
sS'trials_4.thisN'
p1514
I56
sS'trials_4.thisTrialN'
p1515
I0
sa(dp1516
g31
g32
sg14
I1
sg33
g34
sS'trials_4.thisRepN'
p1517
I14
sg25
g29
sS'trials_4.thisIndex'
p1518
g26
(g62
S'\x02\x00\x00\x00\x00\x00\x00\x00'
tRp1519
sg17
(lp1520
F0.50129389762878418
asg1048
g1064
sg1050
g1065
sg15
(lp1521
S'3'
asg1053
g1067
sg30
g11
sg1055
g1056
sg23
g24
sg16
I0
sS'trials_4.thisN'
p1522
I57
sS'trials_4.thisTrialN'
p1523
I1
sa(dp1524
g31
g32
sg14
I1
sg33
g34
sS'trials_4.thisRepN'
p1525
I14
sg25
g29
sS'trials_4.thisIndex'
p1526
g26
(g62
S'\x00\x00\x00\x00\x00\x00\x00\x00'
tRp1527
sg17
(lp1528
F0.30278515815734863
asg1048
g1075
sg1050
g1076
sg15
(lp1529
S'1'
asg1053
g1078
sg30
g11
sg1055
g1056
sg23
g24
sg16
I0
sS'trials_4.thisN'
p1530
I58
sS'trials_4.thisTrialN'
p1531
I2
sa(dp1532
g31
g32
sg14
I1
sg33
g34
sS'trials_4.thisRepN'
p1533
I14
sg25
g29
sS'trials_4.thisIndex'
p1534
g26
(g62
S'\x01\x00\x00\x00\x00\x00\x00\x00'
tRp1535
sg17
(lp1536
F0.35015702247619629
asg1048
g1086
sg1050
g1087
sg15
(lp1537
S'2'
asg1053
g1089
sg30
g11
sg1055
g1056
sg23
g24
sg16
I0
sS'trials_4.thisN'
p1538
I59
sS'trials_4.thisTrialN'
p1539
I3
sa(dp1540
g31
g32
sg14
I1
sg33
g34
sS'trials_4.thisRepN'
p1541
I15
sg25
g29
sS'trials_4.thisIndex'
p1542
g26
(g62
S'\x02\x00\x00\x00\x00\x00\x00\x00'
tRp1543
sg17
(lp1544
F0.28300595283508301
asg1048
g1064
sg1050
g1065
sg15
(lp1545
S'3'
asg1053
g1067
sg30
g11
sg1055
g1056
sg23
g24
sg16
I0
sS'trials_4.thisN'
p1546
I60
sS'trials_4.thisTrialN'
p1547
I0
sa(dp1548
g31
g32
sg14
I1
sg33
g34
sS'trials_4.thisRepN'
p1549
I15
sg25
g29
sS'trials_4.thisIndex'
p1550
g26
(g62
S'\x01\x00\x00\x00\x00\x00\x00\x00'
tRp1551
sg17
(lp1552
F0.43720912933349609
asg1048
g1086
sg1050
g1087
sg15
(lp1553
S'2'
asg1053
g1089
sg30
g11
sg1055
g1056
sg23
g24
sg16
I0
sS'trials_4.thisN'
p1554
I61
sS'trials_4.thisTrialN'
p1555
I1
sa(dp1556
g31
g32
sg14
I1
sg33
g34
sS'trials_4.thisRepN'
p1557
I15
sg25
g29
sS'trials_4.thisIndex'
p1558
g26
(g62
S'\x00\x00\x00\x00\x00\x00\x00\x00'
tRp1559
sg17
(lp1560
F0.30937695503234863
asg1048
g1075
sg1050
g1076
sg15
(lp1561
S'1'
asg1053
g1078
sg30
g11
sg1055
g1056
sg23
g24
sg16
I0
sS'trials_4.thisN'
p1562
I62
sS'trials_4.thisTrialN'
p1563
I2
sa(dp1564
g31
g32
sg14
I1
sg33
g34
sS'trials_4.thisRepN'
p1565
I15
sg25
g29
sS'trials_4.thisIndex'
p1566
g26
(g62
S'\x03\x00\x00\x00\x00\x00\x00\x00'
tRp1567
sg17
(lp1568
F0.29256391525268555
asg1048
g1049
sg1050
g1051
sg15
(lp1569
S'4'
asg1053
g1054
sg30
g11
sg1055
g1056
sg23
g24
sg16
I0
sS'trials_4.thisN'
p1570
I63
sS'trials_4.thisTrialN'
p1571
I3
sa(dp1572
g31
g32
sg14
I1
sg33
g34
sS'trials_4.thisRepN'
p1573
I16
sg25
g29
sS'trials_4.thisIndex'
p1574
g26
(g62
S'\x02\x00\x00\x00\x00\x00\x00\x00'
tRp1575
sg17
(lp1576
F0.34399294853210449
asg1048
g1064
sg1050
g1065
sg15
(lp1577
S'3'
asg1053
g1067
sg30
g11
sg1055
g1056
sg23
g24
sg16
I0
sS'trials_4.thisN'
p1578
I64
sS'trials_4.thisTrialN'
p1579
I0
sa(dp1580
g31
g32
sg14
I1
sg33
g34
sS'trials_4.thisRepN'
p1581
I16
sg25
g29
sS'trials_4.thisIndex'
p1582
g26
(g62
S'\x00\x00\x00\x00\x00\x00\x00\x00'
tRp1583
sg17
(lp1584
F0.37626409530639648
asg1048
g1075
sg1050
g1076
sg15
(lp1585
S'1'
asg1053
g1078
sg30
g11
sg1055
g1056
sg23
g24
sg16
I0
sS'trials_4.thisN'
p1586
I65
sS'trials_4.thisTrialN'
p1587
I1
sa(dp1588
g31
g32
sg14
I0
sg33
g34
sS'trials_4.thisRepN'
p1589
I16
sg25
g29
sS'trials_4.thisIndex'
p1590
g26
(g62
S'\x01\x00\x00\x00\x00\x00\x00\x00'
tRp1591
sg17
(lp1592
F0.17763495445251465
aF0.59440398216247559
asg1048
g1086
sg1050
g1087
sg15
(lp1593
S'3'
aS'2'
asg1053
g1089
sg30
g11
sg1055
g1056
sg23
g24
sg16
I0
sS'trials_4.thisN'
p1594
I66
sS'trials_4.thisTrialN'
p1595
I2
sa(dp1596
g31
g32
sg14
I1
sg33
g34
sS'trials_4.thisRepN'
p1597
I16
sg25
g29
sS'trials_4.thisIndex'
p1598
g26
(g62
S'\x03\x00\x00\x00\x00\x00\x00\x00'
tRp1599
sg17
(lp1600
F0.34459686279296875
asg1048
g1049
sg1050
g1051
sg15
(lp1601
S'4'
asg1053
g1054
sg30
g11
sg1055
g1056
sg23
g24
sg16
I0
sS'trials_4.thisN'
p1602
I67
sS'trials_4.thisTrialN'
p1603
I3
sa(dp1604
g31
g32
sg14
I1
sg33
g34
sS'trials_4.thisRepN'
p1605
I17
sg25
g29
sS'trials_4.thisIndex'
p1606
g26
(g62
S'\x02\x00\x00\x00\x00\x00\x00\x00'
tRp1607
sg17
(lp1608
F0.27784109115600586
asg1048
g1064
sg1050
g1065
sg15
(lp1609
S'3'
asg1053
g1067
sg30
g11
sg1055
g1056
sg23
g24
sg16
I0
sS'trials_4.thisN'
p1610
I68
sS'trials_4.thisTrialN'
p1611
I0
sa(dp1612
g31
g32
sg14
I1
sg33
g34
sS'trials_4.thisRepN'
p1613
I17
sg25
g29
sS'trials_4.thisIndex'
p1614
g26
(g62
S'\x03\x00\x00\x00\x00\x00\x00\x00'
tRp1615
sg17
(lp1616
F0.36211419105529785
asg1048
g1049
sg1050
g1051
sg15
(lp1617
S'4'
asg1053
g1054
sg30
g11
sg1055
g1056
sg23
g24
sg16
I0
sS'trials_4.thisN'
p1618
I69
sS'trials_4.thisTrialN'
p1619
I1
sa(dp1620
g31
g32
sg14
I1
sg33
g34
sS'trials_4.thisRepN'
p1621
I17
sg25
g29
sS'trials_4.thisIndex'
p1622
g26
(g62
S'\x00\x00\x00\x00\x00\x00\x00\x00'
tRp1623
sg17
(lp1624
F0.41263818740844727
asg1048
g1075
sg1050
g1076
sg15
(lp1625
S'1'
asg1053
g1078
sg30
g11
sg1055
g1056
sg23
g24
sg16
I0
sS'trials_4.thisN'
p1626
I70
sS'trials_4.thisTrialN'
p1627
I2
sa(dp1628
g31
g32
sg14
I1
sg33
g34
sS'trials_4.thisRepN'
p1629
I17
sg25
g29
sS'trials_4.thisIndex'
p1630
g26
(g62
S'\x01\x00\x00\x00\x00\x00\x00\x00'
tRp1631
sg17
(lp1632
F0.443695068359375
asg1048
g1086
sg1050
g1087
sg15
(lp1633
S'2'
asg1053
g1089
sg30
g11
sg1055
g1056
sg23
g24
sg16
I0
sS'trials_4.thisN'
p1634
I71
sS'trials_4.thisTrialN'
p1635
I3
sa(dp1636
g31
g32
sg14
I1
sg33
g34
sS'trials_4.thisRepN'
p1637
I18
sg25
g29
sS'trials_4.thisIndex'
p1638
g26
(g62
S'\x03\x00\x00\x00\x00\x00\x00\x00'
tRp1639
sg17
(lp1640
F0.39623808860778809
asg1048
g1049
sg1050
g1051
sg15
(lp1641
S'4'
asg1053
g1054
sg30
g11
sg1055
g1056
sg23
g24
sg16
I0
sS'trials_4.thisN'
p1642
I72
sS'trials_4.thisTrialN'
p1643
I0
sa(dp1644
g31
g32
sg14
I1
sg33
g34
sS'trials_4.thisRepN'
p1645
I18
sg25
g29
sS'trials_4.thisIndex'
p1646
g26
(g62
S'\x01\x00\x00\x00\x00\x00\x00\x00'
tRp1647
sg17
(lp1648
F0.32951903343200684
asg1048
g1086
sg1050
g1087
sg15
(lp1649
S'2'
asg1053
g1089
sg30
g11
sg1055
g1056
sg23
g24
sg16
I0
sS'trials_4.thisN'
p1650
I73
sS'trials_4.thisTrialN'
p1651
I1
sa(dp1652
g31
g32
sg14
I1
sg33
g34
sS'trials_4.thisRepN'
p1653
I18
sg25
g29
sS'trials_4.thisIndex'
p1654
g26
(g62
S'\x00\x00\x00\x00\x00\x00\x00\x00'
tRp1655
sg17
(lp1656
F0.44675993919372559
asg1048
g1075
sg1050
g1076
sg15
(lp1657
S'1'
asg1053
g1078
sg30
g11
sg1055
g1056
sg23
g24
sg16
I0
sS'trials_4.thisN'
p1658
I74
sS'trials_4.thisTrialN'
p1659
I2
sa(dp1660
g31
g32
sg14
I1
sg33
g34
sS'trials_4.thisRepN'
p1661
I18
sg25
g29
sS'trials_4.thisIndex'
p1662
g26
(g62
S'\x02\x00\x00\x00\x00\x00\x00\x00'
tRp1663
sg17
(lp1664
F0.33043503761291504
asg1048
g1064
sg1050
g1065
sg15
(lp1665
S'3'
asg1053
g1067
sg30
g11
sg1055
g1056
sg23
g24
sg16
I0
sS'trials_4.thisN'
p1666
I75
sS'trials_4.thisTrialN'
p1667
I3
sa(dp1668
g31
g32
sg14
I1
sg33
g34
sS'trials_4.thisRepN'
p1669
I19
sg25
g29
sS'trials_4.thisIndex'
p1670
g26
(g62
S'\x01\x00\x00\x00\x00\x00\x00\x00'
tRp1671
sg17
(lp1672
F0.23064398765563965
asg1048
g1086
sg1050
g1087
sg15
(lp1673
S'2'
asg1053
g1089
sg30
g11
sg1055
g1056
sg23
g24
sg16
I0
sS'trials_4.thisN'
p1674
I76
sS'trials_4.thisTrialN'
p1675
I0
sa(dp1676
g31
g32
sg14
I1
sg33
g34
sS'trials_4.thisRepN'
p1677
I19
sg25
g29
sS'trials_4.thisIndex'
p1678
g26
(g62
S'\x03\x00\x00\x00\x00\x00\x00\x00'
tRp1679
sg17
(lp1680
F0.1626429557800293
asg1048
g1049
sg1050
g1051
sg15
(lp1681
S'4'
asg1053
g1054
sg30
g11
sg1055
g1056
sg23
g24
sg16
I0
sS'trials_4.thisN'
p1682
I77
sS'trials_4.thisTrialN'
p1683
I1
sa(dp1684
g31
g32
sg14
I1
sg33
g34
sS'trials_4.thisRepN'
p1685
I19
sg25
g29
sS'trials_4.thisIndex'
p1686
g26
(g62
S'\x02\x00\x00\x00\x00\x00\x00\x00'
tRp1687
sg17
(lp1688
F0.4036710262298584
asg1048
g1064
sg1050
g1065
sg15
(lp1689
S'3'
asg1053
g1067
sg30
g11
sg1055
g1056
sg23
g24
sg16
I0
sS'trials_4.thisN'
p1690
I78
sS'trials_4.thisTrialN'
p1691
I2
sa(dp1692
g31
g32
sg14
I1
sg33
g34
sS'trials_4.thisRepN'
p1693
I19
sg25
g29
sS'trials_4.thisIndex'
p1694
g26
(g62
S'\x00\x00\x00\x00\x00\x00\x00\x00'
tRp1695
sg17
(lp1696
F0.32842493057250977
asg1048
g1075
sg1050
g1076
sg15
(lp1697
S'1'
asg1053
g1078
sg30
g11
sg1055
g1056
sg23
g24
sg16
I0
sS'trials_4.thisN'
p1698
I79
sS'trials_4.thisTrialN'
p1699
I3
sa(dp1700
g31
g32
sg14
I1
sg33
g34
sS'trials_4.thisRepN'
p1701
I20
sg25
g29
sS'trials_4.thisIndex'
p1702
g26
(g62
S'\x02\x00\x00\x00\x00\x00\x00\x00'
tRp1703
sg17
(lp1704
F0.21451711654663086
asg1048
g1064
sg1050
g1065
sg15
(lp1705
S'3'
asg1053
g1067
sg30
g11
sg1055
g1056
sg23
g24
sg16
I0
sS'trials_4.thisN'
p1706
I80
sS'trials_4.thisTrialN'
p1707
I0
sa(dp1708
g31
g32
sg14
I0
sg33
g34
sS'trials_4.thisRepN'
p1709
I20
sg25
g29
sS'trials_4.thisIndex'
p1710
g26
(g62
S'\x00\x00\x00\x00\x00\x00\x00\x00'
tRp1711
sg17
(lp1712
F0.25336694717407227
aF0.50279998779296875
asg1048
g1075
sg1050
g1076
sg15
(lp1713
S'2'
aS'1'
asg1053
g1078
sg30
g11
sg1055
g1056
sg23
g24
sg16
I0
sS'trials_4.thisN'
p1714
I81
sS'trials_4.thisTrialN'
p1715
I1
sa(dp1716
g31
g32
sg14
I0
sg33
g34
sS'trials_4.thisRepN'
p1717
I20
sg25
g29
sS'trials_4.thisIndex'
p1718
g26
(g62
S'\x01\x00\x00\x00\x00\x00\x00\x00'
tRp1719
sg17
(lp1720
F0.22012591361999512
aF0.4537968635559082
asg1048
g1086
sg1050
g1087
sg15
(lp1721
S'4'
aS'2'
asg1053
g1089
sg30
g11
sg1055
g1056
sg23
g24
sg16
I0
sS'trials_4.thisN'
p1722
I82
sS'trials_4.thisTrialN'
p1723
I2
sa(dp1724
g31
g32
sg14
I1
sg33
g34
sS'trials_4.thisRepN'
p1725
I20
sg25
g29
sS'trials_4.thisIndex'
p1726
g26
(g62
S'\x03\x00\x00\x00\x00\x00\x00\x00'
tRp1727
sg17
(lp1728
F0.2700810432434082
asg1048
g1049
sg1050
g1051
sg15
(lp1729
S'4'
asg1053
g1054
sg30
g11
sg1055
g1056
sg23
g24
sg16
I0
sS'trials_4.thisN'
p1730
I83
sS'trials_4.thisTrialN'
p1731
I3
sa(dp1732
g31
g32
sg14
I1
sg33
g34
sS'trials_4.thisRepN'
p1733
I21
sg25
g29
sS'trials_4.thisIndex'
p1734
g26
(g62
S'\x00\x00\x00\x00\x00\x00\x00\x00'
tRp1735
sg17
(lp1736
F0.36742997169494629
asg1048
g1075
sg1050
g1076
sg15
(lp1737
S'1'
asg1053
g1078
sg30
g11
sg1055
g1056
sg23
g24
sg16
I0
sS'trials_4.thisN'
p1738
I84
sS'trials_4.thisTrialN'
p1739
I0
sa(dp1740
g31
g32
sg14
I1
sg33
g34
sS'trials_4.thisRepN'
p1741
I21
sg25
g29
sS'trials_4.thisIndex'
p1742
g26
(g62
S'\x02\x00\x00\x00\x00\x00\x00\x00'
tRp1743
sg17
(lp1744
F0.28672409057617188
asg1048
g1064
sg1050
g1065
sg15
(lp1745
S'3'
asg1053
g1067
sg30
g11
sg1055
g1056
sg23
g24
sg16
I0
sS'trials_4.thisN'
p1746
I85
sS'trials_4.thisTrialN'
p1747
I1
sa(dp1748
g31
g32
sg14
I1
sg33
g34
sS'trials_4.thisRepN'
p1749
I21
sg25
g29
sS'trials_4.thisIndex'
p1750
g26
(g62
S'\x03\x00\x00\x00\x00\x00\x00\x00'
tRp1751
sg17
(lp1752
F0.40157389640808105
asg1048
g1049
sg1050
g1051
sg15
(lp1753
S'4'
asg1053
g1054
sg30
g11
sg1055
g1056
sg23
g24
sg16
I0
sS'trials_4.thisN'
p1754
I86
sS'trials_4.thisTrialN'
p1755
I2
sa(dp1756
g31
g32
sg14
I1
sg33
g34
sS'trials_4.thisRepN'
p1757
I21
sg25
g29
sS'trials_4.thisIndex'
p1758
g26
(g62
S'\x01\x00\x00\x00\x00\x00\x00\x00'
tRp1759
sg17
(lp1760
F0.37058687210083008
asg1048
g1086
sg1050
g1087
sg15
(lp1761
S'2'
asg1053
g1089
sg30
g11
sg1055
g1056
sg23
g24
sg16
I0
sS'trials_4.thisN'
p1762
I87
sS'trials_4.thisTrialN'
p1763
I3
sa(dp1764
g31
g32
sg14
I1
sg33
g34
sS'trials_4.thisRepN'
p1765
I22
sg25
g29
sS'trials_4.thisIndex'
p1766
g26
(g62
S'\x01\x00\x00\x00\x00\x00\x00\x00'
tRp1767
sg17
(lp1768
F0.45290684700012207
asg1048
g1086
sg1050
g1087
sg15
(lp1769
S'2'
asg1053
g1089
sg30
g11
sg1055
g1056
sg23
g24
sg16
I0
sS'trials_4.thisN'
p1770
I88
sS'trials_4.thisTrialN'
p1771
I0
sa(dp1772
g31
g32
sg14
I1
sg33
g34
sS'trials_4.thisRepN'
p1773
I22
sg25
g29
sS'trials_4.thisIndex'
p1774
g26
(g62
S'\x02\x00\x00\x00\x00\x00\x00\x00'
tRp1775
sg17
(lp1776
F0.37083697319030762
asg1048
g1064
sg1050
g1065
sg15
(lp1777
S'3'
asg1053
g1067
sg30
g11
sg1055
g1056
sg23
g24
sg16
I0
sS'trials_4.thisN'
p1778
I89
sS'trials_4.thisTrialN'
p1779
I1
sa(dp1780
g31
g32
sg14
I1
sg33
g34
sS'trials_4.thisRepN'
p1781
I22
sg25
g29
sS'trials_4.thisIndex'
p1782
g26
(g62
S'\x03\x00\x00\x00\x00\x00\x00\x00'
tRp1783
sg17
(lp1784
F0.38793087005615234
asg1048
g1049
sg1050
g1051
sg15
(lp1785
S'4'
asg1053
g1054
sg30
g11
sg1055
g1056
sg23
g24
sg16
I0
sS'trials_4.thisN'
p1786
I90
sS'trials_4.thisTrialN'
p1787
I2
sa(dp1788
g31
g32
sg14
I1
sg33
g34
sS'trials_4.thisRepN'
p1789
I22
sg25
g29
sS'trials_4.thisIndex'
p1790
g26
(g62
S'\x00\x00\x00\x00\x00\x00\x00\x00'
tRp1791
sg17
(lp1792
F0.32069015502929688
asg1048
g1075
sg1050
g1076
sg15
(lp1793
S'1'
asg1053
g1078
sg30
g11
sg1055
g1056
sg23
g24
sg16
I0
sS'trials_4.thisN'
p1794
I91
sS'trials_4.thisTrialN'
p1795
I3
sa(dp1796
g31
g32
sg14
I0
sg33
g34
sS'trials_4.thisRepN'
p1797
I23
sg25
g29
sS'trials_4.thisIndex'
p1798
g26
(g62
S'\x00\x00\x00\x00\x00\x00\x00\x00'
tRp1799
sg17
(lp1800
F0.20440196990966797
aF0.47133898735046387
asg1048
g1075
sg1050
g1076
sg15
(lp1801
S'3'
aS'1'
asg1053
g1078
sg30
g11
sg1055
g1056
sg23
g24
sg16
I0
sS'trials_4.thisN'
p1802
I92
sS'trials_4.thisTrialN'
p1803
I0
sa(dp1804
g31
g32
sg14
I1
sg33
g34
sS'trials_4.thisRepN'
p1805
I23
sg25
g29
sS'trials_4.thisIndex'
p1806
g26
(g62
S'\x03\x00\x00\x00\x00\x00\x00\x00'
tRp1807
sg17
(lp1808
F0.38869619369506836
asg1048
g1049
sg1050
g1051
sg15
(lp1809
S'4'
asg1053
g1054
sg30
g11
sg1055
g1056
sg23
g24
sg16
I0
sS'trials_4.thisN'
p1810
I93
sS'trials_4.thisTrialN'
p1811
I1
sa(dp1812
g31
g32
sg14
I1
sg33
g34
sS'trials_4.thisRepN'
p1813
I23
sg25
g29
sS'trials_4.thisIndex'
p1814
g26
(g62
S'\x01\x00\x00\x00\x00\x00\x00\x00'
tRp1815
sg17
(lp1816
F0.27261495590209961
asg1048
g1086
sg1050
g1087
sg15
(lp1817
S'2'
asg1053
g1089
sg30
g11
sg1055
g1056
sg23
g24
sg16
I0
sS'trials_4.thisN'
p1818
I94
sS'trials_4.thisTrialN'
p1819
I2
sa(dp1820
g31
g32
sg14
I1
sg33
g34
sS'trials_4.thisRepN'
p1821
I23
sg25
g29
sS'trials_4.thisIndex'
p1822
g26
(g62
S'\x02\x00\x00\x00\x00\x00\x00\x00'
tRp1823
sg17
(lp1824
F0.28561305999755859
asg1048
g1064
sg1050
g1065
sg15
(lp1825
S'3'
asg1053
g1067
sg30
g11
sg1055
g1056
sg23
g24
sg16
I0
sS'trials_4.thisN'
p1826
I95
sS'trials_4.thisTrialN'
p1827
I3
sa(dp1828
g31
g32
sg14
I1
sg33
g34
sS'trials_4.thisRepN'
p1829
I24
sg25
g29
sS'trials_4.thisIndex'
p1830
g26
(g62
S'\x02\x00\x00\x00\x00\x00\x00\x00'
tRp1831
sg17
(lp1832
F0.38658499717712402
asg1048
g1064
sg1050
g1065
sg15
(lp1833
S'3'
asg1053
g1067
sg30
g11
sg1055
g1056
sg23
g24
sg16
I0
sS'trials_4.thisN'
p1834
I96
sS'trials_4.thisTrialN'
p1835
I0
sa(dp1836
g31
g32
sg14
I1
sg33
g34
sS'trials_4.thisRepN'
p1837
I24
sg25
g29
sS'trials_4.thisIndex'
p1838
g26
(g62
S'\x03\x00\x00\x00\x00\x00\x00\x00'
tRp1839
sg17
(lp1840
F0.3530278205871582
asg1048
g1049
sg1050
g1051
sg15
(lp1841
S'4'
asg1053
g1054
sg30
g11
sg1055
g1056
sg23
g24
sg16
I0
sS'trials_4.thisN'
p1842
I97
sS'trials_4.thisTrialN'
p1843
I1
sa(dp1844
g31
g32
sg14
I1
sg33
g34
sS'trials_4.thisRepN'
p1845
I24
sg25
g29
sS'trials_4.thisIndex'
p1846
g26
(g62
S'\x00\x00\x00\x00\x00\x00\x00\x00'
tRp1847
sg17
(lp1848
F0.30243396759033203
asg1048
g1075
sg1050
g1076
sg15
(lp1849
S'1'
asg1053
g1078
sg30
g11
sg1055
g1056
sg23
g24
sg16
I0
sS'trials_4.thisN'
p1850
I98
sS'trials_4.thisTrialN'
p1851
I2
sa(dp1852
g31
g32
sg14
I1
sg33
g34
sS'trials_4.thisRepN'
p1853
I24
sg25
g29
sS'trials_4.thisIndex'
p1854
g26
(g62
S'\x01\x00\x00\x00\x00\x00\x00\x00'
tRp1855
sg17
(lp1856
F0.40347480773925781
asg1048
g1086
sg1050
g1087
sg15
(lp1857
S'2'
asg1053
g1089
sg30
g11
sg1055
g1056
sg23
g24
sg16
I0
sS'trials_4.thisN'
p1858
I99
sS'trials_4.thisTrialN'
p1859
I3
sa(dp1860
g31
g32
sg30
g11
sg33
g34
sg23
g24
sg18
S'space'
p1861
sg19
F2.0705480575561523
sg25
g29
sasS'loops'
p1862
(lp1863
g1
(cpsychopy.data
TrialHandler
p1864
g3
NtRp1865
(dp1866
S'origin'
p1867
NsS'thisTrial'
p1868
(lp1869
sS'_exp'
p1870
I4619889936
sg10
S'trials'
p1871
sg6
I-1
sS'thisRepN'
p1872
I1
sg20
I01
sg21
g22
sS'data'
p1873
g1
(cpsychopy.data
DataHandler
p1874
c__builtin__
dict
p1875
(dp1876
S'ran'
p1877
cnumpy.ma.core
_mareconstruct
p1878
(cnumpy.ma.core
MaskedArray
p1879
cnumpy
ndarray
p1880
(I0
tp1881
S'b'
tRp1882
(I1
(I1
I1
tg27
(S'f4'
I0
I1
tRp1883
(I3
S'<'
NNNI-1
I-1
I0
tbI00
S'\x00\x00\x80?'
S'\x00'
NtbsS'order'
p1884
g1878
(g1879
g1880
g1881
S'b'
tRp1885
(I1
(I1
I1
tg1883
I00
S'\x00\x00\x00\x00'
S'\x00'
NtbstRp1886
(dp1887
S'isNumeric'
p1888
(dp1889
g1877
I01
sg1884
I01
ssg1871
g1865
sS'dataTypes'
p1890
(lp1891
g1877
ag1884
asS'dataShape'
p1892
(lp1893
I1
aI1
asbsS'method'
p1894
S'sequential'
p1895
sS'sequenceIndices'
p1896
cnumpy.core.multiarray
_reconstruct
p1897
(g1880
(I0
tS'b'
tRp1898
(I1
(I1
I1
tg62
I00
S'\x00\x00\x00\x00\x00\x00\x00\x00'
tbsS'finished'
p1899
I01
sS'nReps'
p1900
I1
sS'nRemaining'
p1901
I-1
sS'trialList'
p1902
(lp1903
g1
(cpsychopy.data
TrialType
p1904
g1875
(dp1905
S'pawPatrol1'
p1906
Vmin1.png
p1907
sS'pawPatrol2'
p1908
Vmin2.png
p1909
sS'pawPatrol3'
p1910
Vmin3.png
p1911
sS'pawPatrol4'
p1912
Vmin4.png
p1913
sS'blank'
p1914
VallBlank.png
p1915
stRp1916
asS'seed'
p1917
NsS'thisIndex'
p1918
g26
(g62
S'\x00\x00\x00\x00\x00\x00\x00\x00'
tRp1919
sS'thisN'
p1920
I1
sS'thisTrialN'
p1921
I0
sS'nTotal'
p1922
I1
sbag1
(g1864
g3
NtRp1923
(dp1924
g1867
Nsg1868
(lp1925
sg1870
I4619889936
sg10
S'trials_1'
p1926
sg6
I-1
sg1872
I25
sg20
I01
sg21
g22
sg1873
g1
(g1874
g1875
(dp1927
g14
g1878
(g1879
g1880
g1881
S'b'
tRp1928
(I1
(I4
I25
tg1883
I00
S'\x00\x00\x80?\x00\x00\x80?\x00\x00\x80?\x00\x00\x80?\x00\x00\x80?\x00\x00\x80?\x00\x00\x80?\x00\x00\x80?\x00\x00\x80?\x00\x00\x00\x00\x00\x00\x80?\x00\x00\x80?\x00\x00\x80?\x00\x00\x80?\x00\x00\x80?\x00\x00\x80?\x00\x00\x80?\x00\x00\x80?\x00\x00\x80?\x00\x00\x80?\x00\x00\x80?\x00\x00\x80?\x00\x00\x80?\x00\x00\x80?\x00\x00\x80?\x00\x00\x80?\x00\x00\x80?\x00\x00\x80?\x00\x00\x80?\x00\x00\x80?\x00\x00\x80?\x00\x00\x00\x00\x00\x00\x80?\x00\x00\x80?\x00\x00\x80?\x00\x00\x80?\x00\x00\x80?\x00\x00\x80?\x00\x00\x80?\x00\x00\x80?\x00\x00\x80?\x00\x00\x80?\x00\x00\x80?\x00\x00\x80?\x00\x00\x80?\x00\x00\x80?\x00\x00\x80?\x00\x00\x80?\x00\x00\x80?\x00\x00\x80?\x00\x00\x80?\x00\x00\x80?\x00\x00\x80?\x00\x00\x80?\x00\x00\x80?\x00\x00\x80?\x00\x00\x80?\x00\x00\x80?\x00\x00\x80?\x00\x00\x80?\x00\x00\x80?\x00\x00\x80?\x00\x00\x00\x00\x00\x00\x80?\x00\x00\x80?\x00\x00\x80?\x00\x00\x80?\x00\x00\x80?\x00\x00\x80?\x00\x00\x80?\x00\x00\x80?\x00\x00\x80?\x00\x00\x80?\x00\x00\x80?\x00\x00\x80?\x00\x00\x80?\x00\x00\x80?\x00\x00\x80?\x00\x00\x80?\x00\x00\x80?\x00\x00\x80?\x00\x00\x80?\x00\x00\x80?\x00\x00\x80?\x00\x00\x00\x00\x00\x00\x80?\x00\x00\x80?\x00\x00\x80?\x00\x00\x80?\x00\x00\x80?\x00\x00\x80?\x00\x00\x00\x00\x00\x00\x80?\x00\x00\x00\x00\x00\x00\x80?\x00\x00\x80?\x00\x00\x80?\x00\x00\x00\x00\x00\x00\x80?\x00\x00\x00\x00'
S'\x00\x00\x00\x00\x00\x00\x00\x00\x00\x00\x00\x00\x00\x00\x00\x00\x00\x00\x00\x00\x00\x00\x00\x00\x00\x00\x00\x00\x00\x00\x00\x00\x00\x00\x00\x00\x00\x00\x00\x00\x00\x00\x00\x00\x00\x00\x00\x00\x00\x00\x00\x00\x00\x00\x00\x00\x00\x00\x00\x00\x00\x00\x00\x00\x00\x00\x00\x00\x00\x00\x00\x00\x00\x00\x00\x00\x00\x00\x00\x00\x00\x00\x00\x00\x00\x00\x00\x00\x00\x00\x00\x00\x00\x00\x00\x00\x00\x00\x00\x00'
Ntbsg1877
g1878
(g1879
g1880
g1881
S'b'
tRp1929
(I1
(I4
I25
tg1883
I00
S'\x00\x00\x80?\x00\x00\x80?\x00\x00\x80?\x00\x00\x80?\x00\x00\x80?\x00\x00\x80?\x00\x00\x80?\x00\x00\x80?\x00\x00\x80?\x00\x00\x80?\x00\x00\x80?\x00\x00\x80?\x00\x00\x80?\x00\x00\x80?\x00\x00\x80?\x00\x00\x80?\x00\x00\x80?\x00\x00\x80?\x00\x00\x80?\x00\x00\x80?\x00\x00\x80?\x00\x00\x80?\x00\x00\x80?\x00\x00\x80?\x00\x00\x80?\x00\x00\x80?\x00\x00\x80?\x00\x00\x80?\x00\x00\x80?\x00\x00\x80?\x00\x00\x80?\x00\x00\x80?\x00\x00\x80?\x00\x00\x80?\x00\x00\x80?\x00\x00\x80?\x00\x00\x80?\x00\x00\x80?\x00\x00\x80?\x00\x00\x80?\x00\x00\x80?\x00\x00\x80?\x00\x00\x80?\x00\x00\x80?\x00\x00\x80?\x00\x00\x80?\x00\x00\x80?\x00\x00\x80?\x00\x00\x80?\x00\x00\x80?\x00\x00\x80?\x00\x00\x80?\x00\x00\x80?\x00\x00\x80?\x00\x00\x80?\x00\x00\x80?\x00\x00\x80?\x00\x00\x80?\x00\x00\x80?\x00\x00\x80?\x00\x00\x80?\x00\x00\x80?\x00\x00\x80?\x00\x00\x80?\x00\x00\x80?\x00\x00\x80?\x00\x00\x80?\x00\x00\x80?\x00\x00\x80?\x00\x00\x80?\x00\x00\x80?\x00\x00\x80?\x00\x00\x80?\x00\x00\x80?\x00\x00\x80?\x00\x00\x80?\x00\x00\x80?\x00\x00\x80?\x00\x00\x80?\x00\x00\x80?\x00\x00\x80?\x00\x00\x80?\x00\x00\x80?\x00\x00\x80?\x00\x00\x80?\x00\x00\x80?\x00\x00\x80?\x00\x00\x80?\x00\x00\x80?\x00\x00\x80?\x00\x00\x80?\x00\x00\x80?\x00\x00\x80?\x00\x00\x80?\x00\x00\x80?\x00\x00\x80?\x00\x00\x80?\x00\x00\x80?\x00\x00\x80?\x00\x00\x80?'
S'\x00\x00\x00\x00\x00\x00\x00\x00\x00\x00\x00\x00\x00\x00\x00\x00\x00\x00\x00\x00\x00\x00\x00\x00\x00\x00\x00\x00\x00\x00\x00\x00\x00\x00\x00\x00\x00\x00\x00\x00\x00\x00\x00\x00\x00\x00\x00\x00\x00\x00\x00\x00\x00\x00\x00\x00\x00\x00\x00\x00\x00\x00\x00\x00\x00\x00\x00\x00\x00\x00\x00\x00\x00\x00\x00\x00\x00\x00\x00\x00\x00\x00\x00\x00\x00\x00\x00\x00\x00\x00\x00\x00\x00\x00\x00\x00\x00\x00\x00\x00'
Ntbsg16
g1878
(g1879
g1880
g1881
S'b'
tRp1930
(I1
(I4
I25
tg1883
I00
S'\x00\x00\x00\x00\x00\x00\x00\x00\x00\x00\x00\x00\x00\x00\x00\x00\x00\x00\x00\x00\x00\x00\x00\x00\x00\x00\x00\x00\x00\x00\x00\x00\x00\x00\x00\x00\x00\x00\x00\x00\x00\x00\x00\x00\x00\x00\x00\x00\x00\x00\x00\x00\x00\x00\x00\x00\x00\x00\x00\x00\x00\x00\x00\x00\x00\x00\x00\x00\x00\x00\x00\x00\x00\x00\x00\x00\x00\x00\x00\x00\x00\x00\x00\x00\x00\x00\x00\x00\x00\x00\x00\x00\x00\x00\x00\x00\x00\x00\x00\x00\x00\x00\x00\x00\x00\x00\x00\x00\x00\x00\x00\x00\x00\x00\x00\x00\x00\x00\x00\x00\x00\x00\x00\x00\x00\x00\x00\x00\x00\x00\x00\x00\x00\x00\x00\x00\x00\x00\x00\x00\x00\x00\x00\x00\x00\x00\x00\x00\x00\x00\x00\x00\x00\x00\x00\x00\x00\x00\x00\x00\x00\x00\x00\x00\x00\x00\x00\x00\x00\x00\x00\x00\x00\x00\x00\x00\x00\x00\x00\x00\x00\x00\x00\x00\x00\x00\x00\x00\x00\x00\x00\x00\x00\x00\x00\x00\x00\x00\x00\x00\x00\x00\x00\x00\x00\x00\x00\x00\x00\x00\x00\x00\x00\x00\x00\x00\x00\x00\x00\x00\x00\x00\x00\x00\x00\x00\x00\x00\x00\x00\x00\x00\x00\x00\x00\x00\x00\x00\x00\x00\x00\x00\x00\x00\x00\x00\x00\x00\x00\x00\x00\x00\x00\x00\x00\x00\x00\x00\x00\x00\x00\x00\x00\x00\x00\x00\x00\x00\x00\x00\x00\x00\x00\x00\x00\x00\x00\x00\x00\x00\x00\x00\x00\x00\x00\x00\x00\x00\x00\x00\x00\x00\x00\x00\x00\x00\x00\x00\x00\x00\x00\x00\x00\x00\x00\x00\x00\x00\x00\x00\x00\x00\x00\x00\x00\x00\x00\x00\x00\x00\x00\x00\x00\x00\x00\x00\x00\x00\x00\x00\x00\x00\x00\x00\x00\x00\x00\x00\x00\x00\x00\x00\x00\x00\x00\x00\x00\x00\x00\x00\x00\x00\x00\x00\x00\x00\x00\x00\x00\x00\x00\x00\x00\x00\x00\x00\x00\x00\x00\x00\x00\x00\x00\x00\x00\x00\x00\x00\x00\x00\x00\x00\x00\x00\x00\x00\x00\x00\x00\x00\x00\x00\x00\x00\x00\x00\x00\x00\x00\x00'
S'\x00\x00\x00\x00\x00\x00\x00\x00\x00\x00\x00\x00\x00\x00\x00\x00\x00\x00\x00\x00\x00\x00\x00\x00\x00\x00\x00\x00\x00\x00\x00\x00\x00\x00\x00\x00\x00\x00\x00\x00\x00\x00\x00\x00\x00\x00\x00\x00\x00\x00\x00\x00\x00\x00\x00\x00\x00\x00\x00\x00\x00\x00\x00\x00\x00\x00\x00\x00\x00\x00\x00\x00\x00\x00\x00\x00\x00\x00\x00\x00\x00\x00\x00\x00\x00\x00\x00\x00\x00\x00\x00\x00\x00\x00\x00\x00\x00\x00\x00\x00'
Ntbsg17
g1897
(g1880
(I0
tS'b'
tRp1931
(I1
(I4
I25
tg27
(S'O8'
I0
I1
tRp1932
(I3
S'|'
NNNI-1
I-1
I63
tbI00
(lp1933
(lp1934
F0.45860910415649414
aa(lp1935
F0.42846083641052246
aa(lp1936
F0.24662590026855469
aa(lp1937
F0.42771601676940918
aa(lp1938
F0.53633689880371094
aa(lp1939
F0.43712878227233887
aa(lp1940
F0.97055196762084961
aa(lp1941
F0.33689594268798828
aa(lp1942
F0.28535294532775879
aa(lp1943
F0.1926720142364502
aF0.50708603858947754
aa(lp1944
F0.37583112716674805
aa(lp1945
F0.24600696563720703
aa(lp1946
F0.29690694808959961
aa(lp1947
F0.39674592018127441
aa(lp1948
F0.4027869701385498
aa(lp1949
F0.38702797889709473
aa(lp1950
F0.40439105033874512
aa(lp1951
F0.38628292083740234
aa(lp1952
F0.291748046875
aa(lp1953
F0.40985512733459473
aa(lp1954
F0.41209197044372559
aa(lp1955
F0.36273002624511719
aa(lp1956
F0.47901391983032227
aa(lp1957
F0.39619278907775879
aa(lp1958
F0.35372114181518555
aa(lp1959
F0.46971821784973145
aa(lp1960
F0.26173591613769531
aa(lp1961
F0.39605808258056641
aa(lp1962
F0.27010393142700195
aa(lp1963
F0.27011609077453613
aa(lp1964
F0.32017302513122559
aa(lp1965
F0.37047815322875977
aF0.42040610313415527
aa(lp1966
F0.26704287528991699
aa(lp1967
F0.25311088562011719
aa(lp1968
F0.40883803367614746
aa(lp1969
F0.32772588729858398
aa(lp1970
F0.20964312553405762
aa(lp1971
F0.24678397178649902
aa(lp1972
F0.37709903717041016
aa(lp1973
F0.50371980667114258
aa(lp1974
F0.31940603256225586
aa(lp1975
F0.27111721038818359
aa(lp1976
F0.35395193099975586
aa(lp1977
F0.28694295883178711
aa(lp1978
F0.4237828254699707
aa(lp1979
F0.26232004165649414
aa(lp1980
F0.36159205436706543
aa(lp1981
F0.26313495635986328
aa(lp1982
F0.23618316650390625
aa(lp1983
F0.52050018310546875
aa(lp1984
F0.27681183815002441
aa(lp1985
F0.41129088401794434
aa(lp1986
F0.27814888954162598
aa(lp1987
F0.3369591236114502
aa(lp1988
F0.4200439453125
aa(lp1989
F0.30350708961486816
aa(lp1990
F0.3213651180267334
aa(lp1991
F0.35646486282348633
aa(lp1992
F0.24818015098571777
aa(lp1993
F0.25892496109008789
aa(lp1994
F0.2282721996307373
aa(lp1995
F0.2133641242980957
aa(lp1996
F0.21328496932983398
aF0.52979397773742676
aa(lp1997
F1.6035828590393066
aa(lp1998
F0.43648505210876465
aa(lp1999
F0.23732781410217285
aa(lp2000
F0.25582003593444824
aa(lp2001
F0.35665416717529297
aa(lp2002
F0.25256085395812988
aa(lp2003
F0.34069395065307617
aa(lp2004
F0.39469695091247559
aa(lp2005
F0.27853488922119141
aa(lp2006
F0.26341104507446289
aa(lp2007
F0.43016791343688965
aa(lp2008
F0.27031493186950684
aa(lp2009
F0.3106238842010498
aa(lp2010
F0.41138100624084473
aa(lp2011
F0.32052803039550781
aa(lp2012
F0.47928714752197266
aa(lp2013
F0.46951007843017578
aa(lp2014
F0.35426497459411621
aa(lp2015
F0.37069416046142578
aa(lp2016
F0.37216901779174805
aa(lp2017
F0.20284295082092285
aa(lp2018
F0.18679213523864746
aF0.57564401626586914
aa(lp2019
F0.2749171257019043
aa(lp2020
F0.31960797309875488
aa(lp2021
F0.26361179351806641
aa(lp2022
F0.47812891006469727
aa(lp2023
F0.33691310882568359
aa(lp2024
F0.27112102508544922
aa(lp2025
F0.20455813407897949
aF0.47085094451904297
aa(lp2026
F0.32027888298034668
aa(lp2027
F0.25315308570861816
aF0.58685898780822754
aa(lp2028
F0.32618212699890137
aa(lp2029
F0.32783889770507812
aa(lp2030
F0.34573698043823242
aa(lp2031
F0.27051186561584473
aF0.45431780815124512
aa(lp2032
F0.36710405349731445
aa(lp2033
F0.367218017578125
aF0.73666095733642578
aatbsg1884
g1878
(g1879
g1880
g1881
S'b'
tRp2034
(I1
(I4
I25
tg1883
I00
S'\x00\x00\x00@\x00\x00\xa0@\x00\x000A\x00\x00@A\x00\x00\x80A\x00\x00\xb0A\x00\x00\xc0A\x00\x00\xf8A\x00\x00\x0cB\x00\x00\x14B\x00\x00(B\x00\x008B\x00\x00LB\x00\x00TB\x00\x00hB\x00\x00xB\x00\x00\x80B\x00\x00\x8eB\x00\x00\x96B\x00\x00\x9eB\x00\x00\xa4B\x00\x00\xaeB\x00\x00\xb4B\x00\x00\xbaB\x00\x00\xc6B\x00\x00\x00\x00\x00\x00\xe0@\x00\x00\x10A\x00\x00`A\x00\x00\x98A\x00\x00\xa8A\x00\x00\xc8A\x00\x00\xf0A\x00\x00\x04B\x00\x00\x18B\x00\x00$B\x00\x004B\x00\x00DB\x00\x00PB\x00\x00`B\x00\x00pB\x00\x00\x84B\x00\x00\x8cB\x00\x00\x92B\x00\x00\x98B\x00\x00\xa6B\x00\x00\xa8B\x00\x00\xb2B\x00\x00\xbcB\x00\x00\xc0B\x00\x00\x80?\x00\x00\x80@\x00\x00\x00A\x00\x00pA\x00\x00\x90A\x00\x00\xb8A\x00\x00\xd8A\x00\x00\xe8A\x00\x00\x00B\x00\x00\x1cB\x00\x00,B\x00\x00<B\x00\x00@B\x00\x00\\B\x00\x00dB\x00\x00tB\x00\x00\x86B\x00\x00\x88B\x00\x00\x94B\x00\x00\x9cB\x00\x00\xa2B\x00\x00\xacB\x00\x00\xb0B\x00\x00\xb8B\x00\x00\xc4B\x00\x00@@\x00\x00\xc0@\x00\x00 A\x00\x00PA\x00\x00\x88A\x00\x00\xa0A\x00\x00\xd0A\x00\x00\xe0A\x00\x00\x08B\x00\x00\x10B\x00\x00 B\x00\x000B\x00\x00HB\x00\x00XB\x00\x00lB\x00\x00|B\x00\x00\x82B\x00\x00\x8aB\x00\x00\x90B\x00\x00\x9aB\x00\x00\xa0B\x00\x00\xaaB\x00\x00\xb6B\x00\x00\xbeB\x00\x00\xc2B'
S'\x00\x00\x00\x00\x00\x00\x00\x00\x00\x00\x00\x00\x00\x00\x00\x00\x00\x00\x00\x00\x00\x00\x00\x00\x00\x00\x00\x00\x00\x00\x00\x00\x00\x00\x00\x00\x00\x00\x00\x00\x00\x00\x00\x00\x00\x00\x00\x00\x00\x00\x00\x00\x00\x00\x00\x00\x00\x00\x00\x00\x00\x00\x00\x00\x00\x00\x00\x00\x00\x00\x00\x00\x00\x00\x00\x00\x00\x00\x00\x00\x00\x00\x00\x00\x00\x00\x00\x00\x00\x00\x00\x00\x00\x00\x00\x00\x00\x00\x00\x00'
Ntbsg15
g1897
(g1880
(I0
tS'b'
tRp2035
(I1
(I4
I25
tg1932
I00
(lp2036
(lp2037
S'1'
aa(lp2038
S'1'
aa(lp2039
S'1'
aa(lp2040
S'1'
aa(lp2041
S'1'
aa(lp2042
S'1'
aa(lp2043
S'1'
aa(lp2044
S'1'
aa(lp2045
S'1'
aa(lp2046
S'2'
aS'1'
aa(lp2047
S'1'
aa(lp2048
S'1'
aa(lp2049
S'1'
aa(lp2050
S'1'
aa(lp2051
S'1'
aa(lp2052
S'1'
aa(lp2053
S'1'
aa(lp2054
S'1'
aa(lp2055
S'1'
aa(lp2056
S'1'
aa(lp2057
S'1'
aa(lp2058
S'1'
aa(lp2059
S'1'
aa(lp2060
S'1'
aa(lp2061
S'1'
aa(lp2062
S'2'
aa(lp2063
S'2'
aa(lp2064
S'2'
aa(lp2065
S'2'
aa(lp2066
S'2'
aa(lp2067
S'2'
aa(lp2068
S'3'
aS'2'
aa(lp2069
S'2'
aa(lp2070
S'2'
aa(lp2071
S'2'
aa(lp2072
S'2'
aa(lp2073
S'2'
aa(lp2074
S'2'
aa(lp2075
S'2'
aa(lp2076
S'2'
aa(lp2077
S'2'
aa(lp2078
S'2'
aa(lp2079
S'2'
aa(lp2080
S'2'
aa(lp2081
S'2'
aa(lp2082
S'2'
aa(lp2083
S'2'
aa(lp2084
S'2'
aa(lp2085
S'2'
aa(lp2086
S'2'
aa(lp2087
S'3'
aa(lp2088
S'3'
aa(lp2089
S'3'
aa(lp2090
S'3'
aa(lp2091
S'3'
aa(lp2092
S'3'
aa(lp2093
S'3'
aa(lp2094
S'3'
aa(lp2095
S'3'
aa(lp2096
S'3'
aa(lp2097
S'3'
aa(lp2098
S'3'
aa(lp2099
S'4'
aS'3'
aa(lp2100
S'3'
aa(lp2101
S'3'
aa(lp2102
S'3'
aa(lp2103
S'3'
aa(lp2104
S'3'
aa(lp2105
S'3'
aa(lp2106
S'3'
aa(lp2107
S'3'
aa(lp2108
S'3'
aa(lp2109
S'3'
aa(lp2110
S'3'
aa(lp2111
S'3'
aa(lp2112
S'4'
aa(lp2113
S'4'
aa(lp2114
S'4'
aa(lp2115
S'4'
aa(lp2116
S'4'
aa(lp2117
S'4'
aa(lp2118
S'4'
aa(lp2119
S'4'
aa(lp2120
S'4'
aa(lp2121
S'3'
aS'4'
aa(lp2122
S'4'
aa(lp2123
S'4'
aa(lp2124
S'4'
aa(lp2125
S'4'
aa(lp2126
S'4'
aa(lp2127
S'4'
aa(lp2128
S'3'
aS'4'
aa(lp2129
S'4'
aa(lp2130
S'3'
aS'4'
aa(lp2131
S'4'
aa(lp2132
S'4'
aa(lp2133
S'4'
aa(lp2134
S'3'
aS'4'
aa(lp2135
S'4'
aa(lp2136
S'3'
aS'4'
aatbstRp2137
(dp2138
g1888
(dp2139
g14
I01
sg1877
I01
sg17
I00
sg15
I00
sg16
I01
sg1884
I01
ssg1871
g1923
sg1890
(lp2140
g1877
ag1884
ag14
ag15
ag16
ag17
asg1892
(lp2141
I4
aI25
asbsg1894
S'random'
p2142
sg1896
g1897
(g1880
(I0
tS'b'
tRp2143
(I1
(I4
I25
tg62
I01
S'\x01\x00\x00\x00\x00\x00\x00\x00\x02\x00\x00\x00\x00\x00\x00\x00\x00\x00\x00\x00\x00\x00\x00\x00\x03\x00\x00\x00\x00\x00\x00\x00\x02\x00\x00\x00\x00\x00\x00\x00\x00\x00\x00\x00\x00\x00\x00\x00\x03\x00\x00\x00\x00\x00\x00\x00\x01\x00\x00\x00\x00\x00\x00\x00\x02\x00\x00\x00\x00\x00\x00\x00\x01\x00\x00\x00\x00\x00\x00\x00\x03\x00\x00\x00\x00\x00\x00\x00\x00\x00\x00\x00\x00\x00\x00\x00\x00\x00\x00\x00\x00\x00\x00\x00\x03\x00\x00\x00\x00\x00\x00\x00\x01\x00\x00\x00\x00\x00\x00\x00\x02\x00\x00\x00\x00\x00\x00\x00\x00\x00\x00\x00\x00\x00\x00\x00\x03\x00\x00\x00\x00\x00\x00\x00\x02\x00\x00\x00\x00\x00\x00\x00\x01\x00\x00\x00\x00\x00\x00\x00\x03\x00\x00\x00\x00\x00\x00\x00\x01\x00\x00\x00\x00\x00\x00\x00\x00\x00\x00\x00\x00\x00\x00\x00\x02\x00\x00\x00\x00\x00\x00\x00\x00\x00\x00\x00\x00\x00\x00\x00\x01\x00\x00\x00\x00\x00\x00\x00\x03\x00\x00\x00\x00\x00\x00\x00\x02\x00\x00\x00\x00\x00\x00\x00\x03\x00\x00\x00\x00\x00\x00\x00\x02\x00\x00\x00\x00\x00\x00\x00\x01\x00\x00\x00\x00\x00\x00\x00\x00\x00\x00\x00\x00\x00\x00\x00\x02\x00\x00\x00\x00\x00\x00\x00\x01\x00\x00\x00\x00\x00\x00\x00\x03\x00\x00\x00\x00\x00\x00\x00\x00\x00\x00\x00\x00\x00\x00\x00\x03\x00\x00\x00\x00\x00\x00\x00\x00\x00\x00\x00\x00\x00\x00\x00\x01\x00\x00\x00\x00\x00\x00\x00\x02\x00\x00\x00\x00\x00\x00\x00\x03\x00\x00\x00\x00\x00\x00\x00\x01\x00\x00\x00\x00\x00\x00\x00\x00\x00\x00\x00\x00\x00\x00\x00\x02\x00\x00\x00\x00\x00\x00\x00\x03\x00\x00\x00\x00\x00\x00\x00\x01\x00\x00\x00\x00\x00\x00\x00\x00\x00\x00\x00\x00\x00\x00\x00\x02\x00\x00\x00\x00\x00\x00\x00\x02\x00\x00\x00\x00\x00\x00\x00\x01\x00\x00\x00\x00\x00\x00\x00\x03\x00\x00\x00\x00\x00\x00\x00\x00\x00\x00\x00\x00\x00\x00\x00\x01\x00\x00\x00\x00\x00\x00\x00\x00\x00\x00\x00\x00\x00\x00\x00\x03\x00\x00\x00\x00\x00\x00\x00\x02\x00\x00\x00\x00\x00\x00\x00\x01\x00\x00\x00\x00\x00\x00\x00\x02\x00\x00\x00\x00\x00\x00\x00\x00\x00\x00\x00\x00\x00\x00\x00\x03\x00\x00\x00\x00\x00\x00\x00\x01\x00\x00\x00\x00\x00\x00\x00\x02\x00\x00\x00\x00\x00\x00\x00\x00\x00\x00\x00\x00\x00\x00\x00\x03\x00\x00\x00\x00\x00\x00\x00\x00\x00\x00\x00\x00\x00\x00\x00\x03\x00\x00\x00\x00\x00\x00\x00\x01\x00\x00\x00\x00\x00\x00\x00\x02\x00\x00\x00\x00\x00\x00\x00\x02\x00\x00\x00\x00\x00\x00\x00\x03\x00\x00\x00\x00\x00\x00\x00\x01\x00\x00\x00\x00\x00\x00\x00\x00\x00\x00\x00\x00\x00\x00\x00\x03\x00\x00\x00\x00\x00\x00\x00\x01\x00\x00\x00\x00\x00\x00\x00\x02\x00\x00\x00\x00\x00\x00\x00\x00\x00\x00\x00\x00\x00\x00\x00\x01\x00\x00\x00\x00\x00\x00\x00\x03\x00\x00\x00\x00\x00\x00\x00\x02\x00\x00\x00\x00\x00\x00\x00\x00\x00\x00\x00\x00\x00\x00\x00\x03\x00\x00\x00\x00\x00\x00\x00\x02\x00\x00\x00\x00\x00\x00\x00\x00\x00\x00\x00\x00\x00\x00\x00\x01\x00\x00\x00\x00\x00\x00\x00\x01\x00\x00\x00\x00\x00\x00\x00\x03\x00\x00\x00\x00\x00\x00\x00\x02\x00\x00\x00\x00\x00\x00\x00\x00\x00\x00\x00\x00\x00\x00\x00\x02\x00\x00\x00\x00\x00\x00\x00\x01\x00\x00\x00\x00\x00\x00\x00\x00\x00\x00\x00\x00\x00\x00\x00\x03\x00\x00\x00\x00\x00\x00\x00\x02\x00\x00\x00\x00\x00\x00\x00\x00\x00\x00\x00\x00\x00\x00\x00\x01\x00\x00\x00\x00\x00\x00\x00\x03\x00\x00\x00\x00\x00\x00\x00\x01\x00\x00\x00\x00\x00\x00\x00\x03\x00\x00\x00\x00\x00\x00\x00\x02\x00\x00\x00\x00\x00\x00\x00\x00\x00\x00\x00\x00\x00\x00\x00'
tbsg1899
I01
sg1900
I25
sg1901
I-1
sg1902
(lp2144
g1
(g1904
g1875
(dp2145
g43
g82
sg44
g79
sg45
g80
sg46
g60
stRp2146
ag1
(g1904
g1875
(dp2147
g43
g58
sg44
g55
sg45
g56
sg46
g60
stRp2148
ag1
(g1904
g1875
(dp2149
g43
g71
sg44
g68
sg45
g69
sg46
g60
stRp2150
ag1
(g1904
g1875
(dp2151
g43
g93
sg44
g90
sg45
g91
sg46
g60
stRp2152
asg1917
Nsg1918
g864
sg1920
I100
sg1921
I0
sg1922
I100
sbag1
(g1864
g3
NtRp2153
(dp2154
g1867
Nsg1868
(lp2155
sg1870
I4619889936
sg10
S'trials_2'
p2156
sg6
I-1
sg1872
I10
sg20
I01
sg21
g22
sg1873
g1
(g1874
g1875
(dp2157
g14
g1878
(g1879
g1880
g1881
S'b'
tRp2158
(I1
(I1
I10
tg1883
I00
S'\x00\x00\x00\x00\x00\x00\x00\x00\x00\x00\x80?\x00\x00\x00\x00\x00\x00\x80?\x00\x00\x80?\x00\x00\x80?\x00\x00\x80?\x00\x00\x00\x00\x00\x00\x80?'
S'\x00\x00\x00\x00\x00\x00\x00\x00\x00\x00'
Ntbsg1877
g1878
(g1879
g1880
g1881
S'b'
tRp2159
(I1
(I1
I10
tg1883
I00
S'\x00\x00\x80?\x00\x00\x80?\x00\x00\x80?\x00\x00\x80?\x00\x00\x80?\x00\x00\x80?\x00\x00\x80?\x00\x00\x80?\x00\x00\x80?\x00\x00\x80?'
S'\x00\x00\x00\x00\x00\x00\x00\x00\x00\x00'
Ntbsg16
g1878
(g1879
g1880
g1881
S'b'
tRp2160
(I1
(I1
I10
tg1883
I00
S'\x00\x00\x00\x00\x00\x00\x00\x00\x00\x00\x00\x00\x00\x00\x00\x00\x00\x00\x00\x00\x00\x00\x00\x00\x00\x00\x00\x00\x00\x00\x00\x00\x00\x00\x00\x00\x00\x00\x00\x00'
S'\x00\x00\x00\x00\x00\x00\x00\x00\x00\x00'
Ntbsg17
g1897
(g1880
(I0
tS'b'
tRp2161
(I1
(I1
I10
tg1932
I00
(lp2162
(lp2163
F0.00038480758666992188
aF0.36871886253356934
aa(lp2164
F0.17788791656494141
aF0.51122879981994629
aa(lp2165
F0.00035405158996582031
aa(lp2166
F0.13629817962646484
aF0.46976304054260254
aa(lp2167
F0.28673005104064941
aa(lp2168
F0.36049294471740723
aa(lp2169
F0.32032918930053711
aa(lp2170
F0.38567996025085449
aa(lp2171
F0.00047397613525390625
aF0.50432801246643066
aa(lp2172
F0.35196900367736816
aatbsg1884
g1878
(g1879
g1880
g1881
S'b'
tRp2173
(I1
(I1
I10
tg1883
I00
S'\x00\x00\x00\x00\x00\x00\x80?\x00\x00\x00@\x00\x00@@\x00\x00\x80@\x00\x00\xa0@\x00\x00\xc0@\x00\x00\xe0@\x00\x00\x00A\x00\x00\x10A'
S'\x00\x00\x00\x00\x00\x00\x00\x00\x00\x00'
Ntbsg15
g1897
(g1880
(I0
tS'b'
tRp2174
(I1
(I1
I10
tg1932
I00
(lp2175
(lp2176
S'3'
aS'4'
aa(lp2177
S'3'
aS'4'
aa(lp2178
S'4'
aa(lp2179
S'3'
aS'4'
aa(lp2180
S'4'
aa(lp2181
S'4'
aa(lp2182
S'4'
aa(lp2183
S'4'
aa(lp2184
S'3'
aS'4'
aa(lp2185
S'4'
aatbstRp2186
(dp2187
g1888
(dp2188
g14
I01
sg1877
I01
sg17
I00
sg15
I00
sg16
I01
sg1884
I01
ssg1871
g2153
sg1890
(lp2189
g1877
ag1884
ag14
ag15
ag16
ag17
asg1892
(lp2190
I1
aI10
asbsg1894
g1895
sg1896
g1897
(g1880
(I0
tS'b'
tRp2191
(I1
(I1
I10
tg62
I00
S'\x00\x00\x00\x00\x00\x00\x00\x00\x00\x00\x00\x00\x00\x00\x00\x00\x00\x00\x00\x00\x00\x00\x00\x00\x00\x00\x00\x00\x00\x00\x00\x00\x00\x00\x00\x00\x00\x00\x00\x00\x00\x00\x00\x00\x00\x00\x00\x00\x00\x00\x00\x00\x00\x00\x00\x00\x00\x00\x00\x00\x00\x00\x00\x00\x00\x00\x00\x00\x00\x00\x00\x00\x00\x00\x00\x00\x00\x00\x00\x00'
tbsg1899
I01
sg1900
I10
sg1901
I-1
sg1902
(lp2192
g1
(g1904
g1875
(dp2193
g47
g873
sg48
g874
sg49
g875
sg50
g868
sg878
g879
stRp2194
asg1917
Nsg1918
g951
sg1920
I10
sg1921
I0
sg1922
I10
sbag1
(g1864
g3
NtRp2195
(dp2196
g1867
Nsg1868
(lp2197
sg1870
I4619889936
sg10
S'trials_3'
p2198
sg6
I-1
sg1872
I10
sg20
I01
sg21
g22
sg1873
g1
(g1874
g1875
(dp2199
g14
g1878
(g1879
g1880
g1881
S'b'
tRp2200
(I1
(I1
I10
tg1883
I00
S'\x00\x00\x80?\x00\x00\x00\x00\x00\x00\x80?\x00\x00\x80?\x00\x00\x00\x00\x00\x00\x00\x00\x00\x00\x80?\x00\x00\x00\x00\x00\x00\x00\x00\x00\x00\x00\x00'
S'\x00\x00\x00\x00\x00\x00\x00\x00\x00\x00'
Ntbsg1877
g1878
(g1879
g1880
g1881
S'b'
tRp2201
(I1
(I1
I10
tg1883
I00
S'\x00\x00\x80?\x00\x00\x80?\x00\x00\x80?\x00\x00\x80?\x00\x00\x80?\x00\x00\x80?\x00\x00\x80?\x00\x00\x80?\x00\x00\x80?\x00\x00\x80?'
S'\x00\x00\x00\x00\x00\x00\x00\x00\x00\x00'
Ntbsg16
g1878
(g1879
g1880
g1881
S'b'
tRp2202
(I1
(I1
I10
tg1883
I00
S'\x00\x00\x00\x00\x00\x00\x00\x00\x00\x00\x00\x00\x00\x00\x00\x00\x00\x00\x00\x00\x00\x00\x00\x00\x00\x00\x00\x00\x00\x00\x00\x00\x00\x00\x00\x00\x00\x00\x00\x00'
S'\x00\x00\x00\x00\x00\x00\x00\x00\x00\x00'
Ntbsg17
g1897
(g1880
(I0
tS'b'
tRp2203
(I1
(I1
I10
tg1932
I00
(lp2204
(lp2205
F0.464385986328125
aa(lp2206
F0.18680191040039062
aF0.43665480613708496
aa(lp2207
F0.48933291435241699
aa(lp2208
F0.3416600227355957
aa(lp2209
F0.24520206451416016
aF0.3623960018157959
aa(lp2210
F0.18663311004638672
aF0.43692922592163086
aa(lp2211
F0.086518049240112305
aa(lp2212
F0.26929497718811035
aF0.35316991806030273
aa(lp2213
F0.00038003921508789062
aF0.4769740104675293
aa(lp2214
F0.26278519630432129
aF0.47952699661254883
aatbsg1884
g1878
(g1879
g1880
g1881
S'b'
tRp2215
(I1
(I1
I10
tg1883
I00
S'\x00\x00\x00\x00\x00\x00\x80?\x00\x00\x00@\x00\x00@@\x00\x00\x80@\x00\x00\xa0@\x00\x00\xc0@\x00\x00\xe0@\x00\x00\x00A\x00\x00\x10A'
S'\x00\x00\x00\x00\x00\x00\x00\x00\x00\x00'
Ntbsg15
g1897
(g1880
(I0
tS'b'
tRp2216
(I1
(I1
I10
tg1932
I00
(lp2217
(lp2218
S'4'
aa(lp2219
S'3'
aS'4'
aa(lp2220
S'4'
aa(lp2221
S'4'
aa(lp2222
S'3'
aS'4'
aa(lp2223
S'3'
aS'4'
aa(lp2224
S'4'
aa(lp2225
S'3'
aS'4'
aa(lp2226
S'3'
aS'4'
aa(lp2227
S'3'
aS'4'
aatbstRp2228
(dp2229
g1888
(dp2230
g14
I01
sg1877
I01
sg17
I00
sg15
I00
sg16
I01
sg1884
I01
ssg1871
g2195
sg1890
(lp2231
g1877
ag1884
ag14
ag15
ag16
ag17
asg1892
(lp2232
I1
aI10
asbsg1894
g1895
sg1896
g1897
(g1880
(I0
tS'b'
tRp2233
(I1
(I1
I10
tg62
I00
S'\x00\x00\x00\x00\x00\x00\x00\x00\x00\x00\x00\x00\x00\x00\x00\x00\x00\x00\x00\x00\x00\x00\x00\x00\x00\x00\x00\x00\x00\x00\x00\x00\x00\x00\x00\x00\x00\x00\x00\x00\x00\x00\x00\x00\x00\x00\x00\x00\x00\x00\x00\x00\x00\x00\x00\x00\x00\x00\x00\x00\x00\x00\x00\x00\x00\x00\x00\x00\x00\x00\x00\x00\x00\x00\x00\x00\x00\x00\x00\x00'
tbsg1899
I01
sg1900
I10
sg1901
I-1
sg1902
(lp2234
g1
(g1904
g1875
(dp2235
g955
g956
sg962
g963
sg964
g965
sg966
g967
sg959
g960
stRp2236
asg1917
Nsg1918
g1041
sg1920
I10
sg1921
I0
sg1922
I10
sbag1
(g1864
g3
NtRp2237
(dp2238
g1867
Nsg1868
(lp2239
sg1870
I4619889936
sg10
S'trials_4'
p2240
sg6
I-1
sg1872
I25
sg20
I01
sg21
g22
sg1873
g1
(g1874
g1875
(dp2241
g14
g1878
(g1879
g1880
g1881
S'b'
tRp2242
(I1
(I4
I25
tg1883
I00
S'\x00\x00\x00\x00\x00\x00\x80?\x00\x00\x80?\x00\x00\x80?\x00\x00\x80?\x00\x00\x80?\x00\x00\x80?\x00\x00\x80?\x00\x00\x80?\x00\x00\x80?\x00\x00\x80?\x00\x00\x80?\x00\x00\x80?\x00\x00\x80?\x00\x00\x80?\x00\x00\x80?\x00\x00\x80?\x00\x00\x80?\x00\x00\x80?\x00\x00\x80?\x00\x00\x00\x00\x00\x00\x80?\x00\x00\x80?\x00\x00\x00\x00\x00\x00\x80?\x00\x00\x80?\x00\x00\x80?\x00\x00\x80?\x00\x00\x80?\x00\x00\x00\x00\x00\x00\x80?\x00\x00\x80?\x00\x00\x80?\x00\x00\x80?\x00\x00\x80?\x00\x00\x80?\x00\x00\x80?\x00\x00\x80?\x00\x00\x80?\x00\x00\x80?\x00\x00\x80?\x00\x00\x00\x00\x00\x00\x80?\x00\x00\x80?\x00\x00\x80?\x00\x00\x00\x00\x00\x00\x80?\x00\x00\x80?\x00\x00\x80?\x00\x00\x80?\x00\x00\x80?\x00\x00\x80?\x00\x00\x80?\x00\x00\x80?\x00\x00\x80?\x00\x00\x80?\x00\x00\x80?\x00\x00\x80?\x00\x00\x80?\x00\x00\x00\x00\x00\x00\x80?\x00\x00\x80?\x00\x00\x80?\x00\x00\x80?\x00\x00\x80?\x00\x00\x80?\x00\x00\x80?\x00\x00\x80?\x00\x00\x80?\x00\x00\x80?\x00\x00\x80?\x00\x00\x80?\x00\x00\x80?\x00\x00\x80?\x00\x00\x80?\x00\x00\x80?\x00\x00\x80?\x00\x00\x00\x00\x00\x00\x80?\x00\x00\x80?\x00\x00\x80?\x00\x00\x80?\x00\x00\x80?\x00\x00\x80?\x00\x00\x80?\x00\x00\x80?\x00\x00\x80?\x00\x00\x80?\x00\x00\x80?\x00\x00\x80?\x00\x00\x80?\x00\x00\x80?\x00\x00\x80?\x00\x00\x80?\x00\x00\x80?\x00\x00\x80?\x00\x00\x80?\x00\x00\x80?\x00\x00\x80?\x00\x00\x80?'
S'\x00\x00\x00\x00\x00\x00\x00\x00\x00\x00\x00\x00\x00\x00\x00\x00\x00\x00\x00\x00\x00\x00\x00\x00\x00\x00\x00\x00\x00\x00\x00\x00\x00\x00\x00\x00\x00\x00\x00\x00\x00\x00\x00\x00\x00\x00\x00\x00\x00\x00\x00\x00\x00\x00\x00\x00\x00\x00\x00\x00\x00\x00\x00\x00\x00\x00\x00\x00\x00\x00\x00\x00\x00\x00\x00\x00\x00\x00\x00\x00\x00\x00\x00\x00\x00\x00\x00\x00\x00\x00\x00\x00\x00\x00\x00\x00\x00\x00\x00\x00'
Ntbsg1877
g1878
(g1879
g1880
g1881
S'b'
tRp2243
(I1
(I4
I25
tg1883
I00
S'\x00\x00\x80?\x00\x00\x80?\x00\x00\x80?\x00\x00\x80?\x00\x00\x80?\x00\x00\x80?\x00\x00\x80?\x00\x00\x80?\x00\x00\x80?\x00\x00\x80?\x00\x00\x80?\x00\x00\x80?\x00\x00\x80?\x00\x00\x80?\x00\x00\x80?\x00\x00\x80?\x00\x00\x80?\x00\x00\x80?\x00\x00\x80?\x00\x00\x80?\x00\x00\x80?\x00\x00\x80?\x00\x00\x80?\x00\x00\x80?\x00\x00\x80?\x00\x00\x80?\x00\x00\x80?\x00\x00\x80?\x00\x00\x80?\x00\x00\x80?\x00\x00\x80?\x00\x00\x80?\x00\x00\x80?\x00\x00\x80?\x00\x00\x80?\x00\x00\x80?\x00\x00\x80?\x00\x00\x80?\x00\x00\x80?\x00\x00\x80?\x00\x00\x80?\x00\x00\x80?\x00\x00\x80?\x00\x00\x80?\x00\x00\x80?\x00\x00\x80?\x00\x00\x80?\x00\x00\x80?\x00\x00\x80?\x00\x00\x80?\x00\x00\x80?\x00\x00\x80?\x00\x00\x80?\x00\x00\x80?\x00\x00\x80?\x00\x00\x80?\x00\x00\x80?\x00\x00\x80?\x00\x00\x80?\x00\x00\x80?\x00\x00\x80?\x00\x00\x80?\x00\x00\x80?\x00\x00\x80?\x00\x00\x80?\x00\x00\x80?\x00\x00\x80?\x00\x00\x80?\x00\x00\x80?\x00\x00\x80?\x00\x00\x80?\x00\x00\x80?\x00\x00\x80?\x00\x00\x80?\x00\x00\x80?\x00\x00\x80?\x00\x00\x80?\x00\x00\x80?\x00\x00\x80?\x00\x00\x80?\x00\x00\x80?\x00\x00\x80?\x00\x00\x80?\x00\x00\x80?\x00\x00\x80?\x00\x00\x80?\x00\x00\x80?\x00\x00\x80?\x00\x00\x80?\x00\x00\x80?\x00\x00\x80?\x00\x00\x80?\x00\x00\x80?\x00\x00\x80?\x00\x00\x80?\x00\x00\x80?\x00\x00\x80?\x00\x00\x80?\x00\x00\x80?\x00\x00\x80?'
S'\x00\x00\x00\x00\x00\x00\x00\x00\x00\x00\x00\x00\x00\x00\x00\x00\x00\x00\x00\x00\x00\x00\x00\x00\x00\x00\x00\x00\x00\x00\x00\x00\x00\x00\x00\x00\x00\x00\x00\x00\x00\x00\x00\x00\x00\x00\x00\x00\x00\x00\x00\x00\x00\x00\x00\x00\x00\x00\x00\x00\x00\x00\x00\x00\x00\x00\x00\x00\x00\x00\x00\x00\x00\x00\x00\x00\x00\x00\x00\x00\x00\x00\x00\x00\x00\x00\x00\x00\x00\x00\x00\x00\x00\x00\x00\x00\x00\x00\x00\x00'
Ntbsg16
g1878
(g1879
g1880
g1881
S'b'
tRp2244
(I1
(I4
I25
tg1883
I00
S'\x00\x00\x00\x00\x00\x00\x00\x00\x00\x00\x00\x00\x00\x00\x00\x00\x00\x00\x00\x00\x00\x00\x00\x00\x00\x00\x00\x00\x00\x00\x00\x00\x00\x00\x00\x00\x00\x00\x00\x00\x00\x00\x00\x00\x00\x00\x00\x00\x00\x00\x00\x00\x00\x00\x00\x00\x00\x00\x00\x00\x00\x00\x00\x00\x00\x00\x00\x00\x00\x00\x00\x00\x00\x00\x00\x00\x00\x00\x00\x00\x00\x00\x00\x00\x00\x00\x00\x00\x00\x00\x00\x00\x00\x00\x00\x00\x00\x00\x00\x00\x00\x00\x00\x00\x00\x00\x00\x00\x00\x00\x00\x00\x00\x00\x00\x00\x00\x00\x00\x00\x00\x00\x00\x00\x00\x00\x00\x00\x00\x00\x00\x00\x00\x00\x00\x00\x00\x00\x00\x00\x00\x00\x00\x00\x00\x00\x00\x00\x00\x00\x00\x00\x00\x00\x00\x00\x00\x00\x00\x00\x00\x00\x00\x00\x00\x00\x00\x00\x00\x00\x00\x00\x00\x00\x00\x00\x00\x00\x00\x00\x00\x00\x00\x00\x00\x00\x00\x00\x00\x00\x00\x00\x00\x00\x00\x00\x00\x00\x00\x00\x00\x00\x00\x00\x00\x00\x00\x00\x00\x00\x00\x00\x00\x00\x00\x00\x00\x00\x00\x00\x00\x00\x00\x00\x00\x00\x00\x00\x00\x00\x00\x00\x00\x00\x00\x00\x00\x00\x00\x00\x00\x00\x00\x00\x00\x00\x00\x00\x00\x00\x00\x00\x00\x00\x00\x00\x00\x00\x00\x00\x00\x00\x00\x00\x00\x00\x00\x00\x00\x00\x00\x00\x00\x00\x00\x00\x00\x00\x00\x00\x00\x00\x00\x00\x00\x00\x00\x00\x00\x00\x00\x00\x00\x00\x00\x00\x00\x00\x00\x00\x00\x00\x00\x00\x00\x00\x00\x00\x00\x00\x00\x00\x00\x00\x00\x00\x00\x00\x00\x00\x00\x00\x00\x00\x00\x00\x00\x00\x00\x00\x00\x00\x00\x00\x00\x00\x00\x00\x00\x00\x00\x00\x00\x00\x00\x00\x00\x00\x00\x00\x00\x00\x00\x00\x00\x00\x00\x00\x00\x00\x00\x00\x00\x00\x00\x00\x00\x00\x00\x00\x00\x00\x00\x00\x00\x00\x00\x00\x00\x00\x00\x00\x00\x00\x00\x00\x00\x00\x00\x00\x00\x00\x00\x00\x00\x00\x00\x00\x00\x00'
S'\x00\x00\x00\x00\x00\x00\x00\x00\x00\x00\x00\x00\x00\x00\x00\x00\x00\x00\x00\x00\x00\x00\x00\x00\x00\x00\x00\x00\x00\x00\x00\x00\x00\x00\x00\x00\x00\x00\x00\x00\x00\x00\x00\x00\x00\x00\x00\x00\x00\x00\x00\x00\x00\x00\x00\x00\x00\x00\x00\x00\x00\x00\x00\x00\x00\x00\x00\x00\x00\x00\x00\x00\x00\x00\x00\x00\x00\x00\x00\x00\x00\x00\x00\x00\x00\x00\x00\x00\x00\x00\x00\x00\x00\x00\x00\x00\x00\x00\x00\x00'
Ntbsg17
g1897
(g1880
(I0
tS'b'
tRp2245
(I1
(I4
I25
tg1932
I00
(lp2246
(lp2247
F0.22053217887878418
aF0.45347213745117188
aa(lp2248
F0.50384283065795898
aa(lp2249
F0.28702998161315918
aa(lp2250
F0.37039494514465332
aa(lp2251
F0.33917093276977539
aa(lp2252
F0.35260701179504395
aa(lp2253
F0.34238100051879883
aa(lp2254
F0.36248683929443359
aa(lp2255
F0.26211094856262207
aa(lp2256
F0.34650397300720215
aa(lp2257
F0.28376483917236328
aa(lp2258
F0.40377092361450195
aa(lp2259
F0.32009506225585938
aa(lp2260
F0.38808894157409668
aa(lp2261
F0.30278515815734863
aa(lp2262
F0.30937695503234863
aa(lp2263
F0.37626409530639648
aa(lp2264
F0.41263818740844727
aa(lp2265
F0.44675993919372559
aa(lp2266
F0.32842493057250977
aa(lp2267
F0.25336694717407227
aF0.50279998779296875
aa(lp2268
F0.36742997169494629
aa(lp2269
F0.32069015502929688
aa(lp2270
F0.20440196990966797
aF0.47133898735046387
aa(lp2271
F0.30243396759033203
aa(lp2272
F0.29964900016784668
aa(lp2273
F0.42021679878234863
aa(lp2274
F0.25333404541015625
aa(lp2275
F0.33832383155822754
aa(lp2276
F0.18636202812194824
aF0.53368902206420898
aa(lp2277
F0.25303101539611816
aa(lp2278
F0.38984298706054688
aa(lp2279
F0.27814292907714844
aa(lp2280
F0.11240100860595703
aa(lp2281
F0.39696812629699707
aa(lp2282
F0.33167910575866699
aa(lp2283
F0.30305218696594238
aa(lp2284
F0.40065407752990723
aa(lp2285
F0.40343785285949707
aa(lp2286
F0.35015702247619629
aa(lp2287
F0.43720912933349609
aa(lp2288
F0.17763495445251465
aF0.59440398216247559
aa(lp2289
F0.443695068359375
aa(lp2290
F0.32951903343200684
aa(lp2291
F0.23064398765563965
aa(lp2292
F0.22012591361999512
aF0.4537968635559082
aa(lp2293
F0.37058687210083008
aa(lp2294
F0.45290684700012207
aa(lp2295
F0.27261495590209961
aa(lp2296
F0.40347480773925781
aa(lp2297
F0.3283989429473877
aa(lp2298
F0.318878173828125
aa(lp2299
F0.21913599967956543
aa(lp2300
F0.53753018379211426
aa(lp2301
F0.35372304916381836
aa(lp2302
F0.22090387344360352
aa(lp2303
F0.27724003791809082
aa(lp2304
F0.17583584785461426
aa(lp2305
F0.39706087112426758
aa(lp2306
F0.36432194709777832
aF0.71196699142456055
aa(lp2307
F0.34748506546020508
aa(lp2308
F0.3699188232421875
aa(lp2309
F0.37053394317626953
aa(lp2310
F0.42246484756469727
aa(lp2311
F0.50129389762878418
aa(lp2312
F0.28300595283508301
aa(lp2313
F0.34399294853210449
aa(lp2314
F0.27784109115600586
aa(lp2315
F0.33043503761291504
aa(lp2316
F0.4036710262298584
aa(lp2317
F0.21451711654663086
aa(lp2318
F0.28672409057617188
aa(lp2319
F0.37083697319030762
aa(lp2320
F0.28561305999755859
aa(lp2321
F0.38658499717712402
aa(lp2322
F0.45345592498779297
aa(lp2323
F0.35044002532958984
aa(lp2324
F0.16989707946777344
aF0.43657112121582031
aa(lp2325
F0.30605602264404297
aa(lp2326
F0.30393791198730469
aa(lp2327
F0.35362720489501953
aa(lp2328
F0.51077604293823242
aa(lp2329
F0.39415812492370605
aa(lp2330
F0.29668498039245605
aa(lp2331
F0.34670281410217285
aa(lp2332
F0.37806105613708496
aa(lp2333
F0.33672308921813965
aa(lp2334
F0.32054996490478516
aa(lp2335
F0.40515398979187012
aa(lp2336
F0.40054011344909668
aa(lp2337
F0.29256391525268555
aa(lp2338
F0.34459686279296875
aa(lp2339
F0.36211419105529785
aa(lp2340
F0.39623808860778809
aa(lp2341
F0.1626429557800293
aa(lp2342
F0.2700810432434082
aa(lp2343
F0.40157389640808105
aa(lp2344
F0.38793087005615234
aa(lp2345
F0.38869619369506836
aa(lp2346
F0.3530278205871582
aatbsg1884
g1878
(g1879
g1880
g1881
S'b'
tRp2347
(I1
(I4
I25
tg1883
I00
S'\x00\x00\x00@\x00\x00\x80@\x00\x00\x10A\x00\x00PA\x00\x00\x80A\x00\x00\xa0A\x00\x00\xc8A\x00\x00\xf0A\x00\x00\x0cB\x00\x00\x18B\x00\x00,B\x00\x000B\x00\x00DB\x00\x00TB\x00\x00hB\x00\x00xB\x00\x00\x82B\x00\x00\x8cB\x00\x00\x94B\x00\x00\x9eB\x00\x00\xa2B\x00\x00\xa8B\x00\x00\xb6B\x00\x00\xb8B\x00\x00\xc4B\x00\x00@@\x00\x00\xa0@\x00\x000A\x00\x00`A\x00\x00\x88A\x00\x00\xb0A\x00\x00\xc0A\x00\x00\xe8A\x00\x00\x00B\x00\x00\x1cB\x00\x00(B\x00\x00<B\x00\x00HB\x00\x00PB\x00\x00lB\x00\x00tB\x00\x00\x84B\x00\x00\x8eB\x00\x00\x92B\x00\x00\x98B\x00\x00\xa4B\x00\x00\xaeB\x00\x00\xb0B\x00\x00\xbcB\x00\x00\xc6B\x00\x00\x80?\x00\x00\xe0@\x00\x00 A\x00\x00@A\x00\x00\x98A\x00\x00\xb8A\x00\x00\xd0A\x00\x00\xf8A\x00\x00\x08B\x00\x00\x14B\x00\x00$B\x00\x008B\x00\x00@B\x00\x00\\B\x00\x00dB\x00\x00pB\x00\x00\x80B\x00\x00\x88B\x00\x00\x96B\x00\x00\x9cB\x00\x00\xa0B\x00\x00\xaaB\x00\x00\xb2B\x00\x00\xbeB\x00\x00\xc0B\x00\x00\x00\x00\x00\x00\xc0@\x00\x00\x00A\x00\x00pA\x00\x00\x90A\x00\x00\xa8A\x00\x00\xd8A\x00\x00\xe0A\x00\x00\x04B\x00\x00\x10B\x00\x00 B\x00\x004B\x00\x00LB\x00\x00XB\x00\x00`B\x00\x00|B\x00\x00\x86B\x00\x00\x8aB\x00\x00\x90B\x00\x00\x9aB\x00\x00\xa6B\x00\x00\xacB\x00\x00\xb4B\x00\x00\xbaB\x00\x00\xc2B'
S'\x00\x00\x00\x00\x00\x00\x00\x00\x00\x00\x00\x00\x00\x00\x00\x00\x00\x00\x00\x00\x00\x00\x00\x00\x00\x00\x00\x00\x00\x00\x00\x00\x00\x00\x00\x00\x00\x00\x00\x00\x00\x00\x00\x00\x00\x00\x00\x00\x00\x00\x00\x00\x00\x00\x00\x00\x00\x00\x00\x00\x00\x00\x00\x00\x00\x00\x00\x00\x00\x00\x00\x00\x00\x00\x00\x00\x00\x00\x00\x00\x00\x00\x00\x00\x00\x00\x00\x00\x00\x00\x00\x00\x00\x00\x00\x00\x00\x00\x00\x00'
Ntbsg15
g1897
(g1880
(I0
tS'b'
tRp2348
(I1
(I4
I25
tg1932
I00
(lp2349
(lp2350
S'2'
aS'1'
aa(lp2351
S'1'
aa(lp2352
S'1'
aa(lp2353
S'1'
aa(lp2354
S'1'
aa(lp2355
S'1'
aa(lp2356
S'1'
aa(lp2357
S'1'
aa(lp2358
S'1'
aa(lp2359
S'1'
aa(lp2360
S'1'
aa(lp2361
S'1'
aa(lp2362
S'1'
aa(lp2363
S'1'
aa(lp2364
S'1'
aa(lp2365
S'1'
aa(lp2366
S'1'
aa(lp2367
S'1'
aa(lp2368
S'1'
aa(lp2369
S'1'
aa(lp2370
S'2'
aS'1'
aa(lp2371
S'1'
aa(lp2372
S'1'
aa(lp2373
S'3'
aS'1'
aa(lp2374
S'1'
aa(lp2375
S'2'
aa(lp2376
S'2'
aa(lp2377
S'2'
aa(lp2378
S'2'
aa(lp2379
S'3'
aS'2'
aa(lp2380
S'2'
aa(lp2381
S'2'
aa(lp2382
S'2'
aa(lp2383
S'2'
aa(lp2384
S'2'
aa(lp2385
S'2'
aa(lp2386
S'2'
aa(lp2387
S'2'
aa(lp2388
S'2'
aa(lp2389
S'2'
aa(lp2390
S'2'
aa(lp2391
S'3'
aS'2'
aa(lp2392
S'2'
aa(lp2393
S'2'
aa(lp2394
S'2'
aa(lp2395
S'4'
aS'2'
aa(lp2396
S'2'
aa(lp2397
S'2'
aa(lp2398
S'2'
aa(lp2399
S'2'
aa(lp2400
S'3'
aa(lp2401
S'3'
aa(lp2402
S'3'
aa(lp2403
S'3'
aa(lp2404
S'3'
aa(lp2405
S'3'
aa(lp2406
S'3'
aa(lp2407
S'3'
aa(lp2408
S'3'
aa(lp2409
S'4'
aS'3'
aa(lp2410
S'3'
aa(lp2411
S'3'
aa(lp2412
S'3'
aa(lp2413
S'3'
aa(lp2414
S'3'
aa(lp2415
S'3'
aa(lp2416
S'3'
aa(lp2417
S'3'
aa(lp2418
S'3'
aa(lp2419
S'3'
aa(lp2420
S'3'
aa(lp2421
S'3'
aa(lp2422
S'3'
aa(lp2423
S'3'
aa(lp2424
S'3'
aa(lp2425
S'4'
aa(lp2426
S'4'
aa(lp2427
S'2'
aS'4'
aa(lp2428
S'4'
aa(lp2429
S'4'
aa(lp2430
S'4'
aa(lp2431
S'4'
aa(lp2432
S'4'
aa(lp2433
S'4'
aa(lp2434
S'4'
aa(lp2435
S'4'
aa(lp2436
S'4'
aa(lp2437
S'4'
aa(lp2438
S'4'
aa(lp2439
S'4'
aa(lp2440
S'4'
aa(lp2441
S'4'
aa(lp2442
S'4'
aa(lp2443
S'4'
aa(lp2444
S'4'
aa(lp2445
S'4'
aa(lp2446
S'4'
aa(lp2447
S'4'
aa(lp2448
S'4'
aa(lp2449
S'4'
aatbstRp2450
(dp2451
g1888
(dp2452
g14
I01
sg1877
I01
sg17
I00
sg15
I00
sg16
I01
sg1884
I01
ssg1871
g2237
sg1890
(lp2453
g1877
ag1884
ag14
ag15
ag16
ag17
asg1892
(lp2454
I4
aI25
asbsg1894
g2142
sg1896
g1897
(g1880
(I0
tS'b'
tRp2455
(I1
(I4
I25
tg62
I01
S'\x03\x00\x00\x00\x00\x00\x00\x00\x02\x00\x00\x00\x00\x00\x00\x00\x00\x00\x00\x00\x00\x00\x00\x00\x01\x00\x00\x00\x00\x00\x00\x00\x00\x00\x00\x00\x00\x00\x00\x00\x01\x00\x00\x00\x00\x00\x00\x00\x03\x00\x00\x00\x00\x00\x00\x00\x02\x00\x00\x00\x00\x00\x00\x00\x03\x00\x00\x00\x00\x00\x00\x00\x00\x00\x00\x00\x00\x00\x00\x00\x02\x00\x00\x00\x00\x00\x00\x00\x01\x00\x00\x00\x00\x00\x00\x00\x02\x00\x00\x00\x00\x00\x00\x00\x00\x00\x00\x00\x00\x00\x00\x00\x01\x00\x00\x00\x00\x00\x00\x00\x03\x00\x00\x00\x00\x00\x00\x00\x00\x00\x00\x00\x00\x00\x00\x00\x01\x00\x00\x00\x00\x00\x00\x00\x03\x00\x00\x00\x00\x00\x00\x00\x02\x00\x00\x00\x00\x00\x00\x00\x00\x00\x00\x00\x00\x00\x00\x00\x03\x00\x00\x00\x00\x00\x00\x00\x01\x00\x00\x00\x00\x00\x00\x00\x02\x00\x00\x00\x00\x00\x00\x00\x01\x00\x00\x00\x00\x00\x00\x00\x00\x00\x00\x00\x00\x00\x00\x00\x02\x00\x00\x00\x00\x00\x00\x00\x03\x00\x00\x00\x00\x00\x00\x00\x03\x00\x00\x00\x00\x00\x00\x00\x01\x00\x00\x00\x00\x00\x00\x00\x00\x00\x00\x00\x00\x00\x00\x00\x02\x00\x00\x00\x00\x00\x00\x00\x01\x00\x00\x00\x00\x00\x00\x00\x03\x00\x00\x00\x00\x00\x00\x00\x02\x00\x00\x00\x00\x00\x00\x00\x00\x00\x00\x00\x00\x00\x00\x00\x03\x00\x00\x00\x00\x00\x00\x00\x02\x00\x00\x00\x00\x00\x00\x00\x00\x00\x00\x00\x00\x00\x00\x00\x01\x00\x00\x00\x00\x00\x00\x00\x03\x00\x00\x00\x00\x00\x00\x00\x02\x00\x00\x00\x00\x00\x00\x00\x01\x00\x00\x00\x00\x00\x00\x00\x00\x00\x00\x00\x00\x00\x00\x00\x00\x00\x00\x00\x00\x00\x00\x00\x03\x00\x00\x00\x00\x00\x00\x00\x02\x00\x00\x00\x00\x00\x00\x00\x01\x00\x00\x00\x00\x00\x00\x00\x02\x00\x00\x00\x00\x00\x00\x00\x00\x00\x00\x00\x00\x00\x00\x00\x01\x00\x00\x00\x00\x00\x00\x00\x03\x00\x00\x00\x00\x00\x00\x00\x01\x00\x00\x00\x00\x00\x00\x00\x00\x00\x00\x00\x00\x00\x00\x00\x03\x00\x00\x00\x00\x00\x00\x00\x02\x00\x00\x00\x00\x00\x00\x00\x03\x00\x00\x00\x00\x00\x00\x00\x02\x00\x00\x00\x00\x00\x00\x00\x00\x00\x00\x00\x00\x00\x00\x00\x01\x00\x00\x00\x00\x00\x00\x00\x02\x00\x00\x00\x00\x00\x00\x00\x01\x00\x00\x00\x00\x00\x00\x00\x00\x00\x00\x00\x00\x00\x00\x00\x03\x00\x00\x00\x00\x00\x00\x00\x02\x00\x00\x00\x00\x00\x00\x00\x00\x00\x00\x00\x00\x00\x00\x00\x01\x00\x00\x00\x00\x00\x00\x00\x03\x00\x00\x00\x00\x00\x00\x00\x02\x00\x00\x00\x00\x00\x00\x00\x03\x00\x00\x00\x00\x00\x00\x00\x00\x00\x00\x00\x00\x00\x00\x00\x01\x00\x00\x00\x00\x00\x00\x00\x03\x00\x00\x00\x00\x00\x00\x00\x01\x00\x00\x00\x00\x00\x00\x00\x00\x00\x00\x00\x00\x00\x00\x00\x02\x00\x00\x00\x00\x00\x00\x00\x01\x00\x00\x00\x00\x00\x00\x00\x03\x00\x00\x00\x00\x00\x00\x00\x02\x00\x00\x00\x00\x00\x00\x00\x00\x00\x00\x00\x00\x00\x00\x00\x02\x00\x00\x00\x00\x00\x00\x00\x00\x00\x00\x00\x00\x00\x00\x00\x01\x00\x00\x00\x00\x00\x00\x00\x03\x00\x00\x00\x00\x00\x00\x00\x00\x00\x00\x00\x00\x00\x00\x00\x02\x00\x00\x00\x00\x00\x00\x00\x03\x00\x00\x00\x00\x00\x00\x00\x01\x00\x00\x00\x00\x00\x00\x00\x01\x00\x00\x00\x00\x00\x00\x00\x02\x00\x00\x00\x00\x00\x00\x00\x03\x00\x00\x00\x00\x00\x00\x00\x00\x00\x00\x00\x00\x00\x00\x00\x00\x00\x00\x00\x00\x00\x00\x00\x03\x00\x00\x00\x00\x00\x00\x00\x01\x00\x00\x00\x00\x00\x00\x00\x02\x00\x00\x00\x00\x00\x00\x00\x02\x00\x00\x00\x00\x00\x00\x00\x03\x00\x00\x00\x00\x00\x00\x00\x00\x00\x00\x00\x00\x00\x00\x00\x01\x00\x00\x00\x00\x00\x00\x00'
tbsg1899
I01
sg1900
I25
sg1901
I-1
sg1902
(lp2456
g1
(g1904
g1875
(dp2457
g1053
g1078
sg1048
g1075
sg1050
g1076
sg1055
g1056
stRp2458
ag1
(g1904
g1875
(dp2459
g1053
g1089
sg1048
g1086
sg1050
g1087
sg1055
g1056
stRp2460
ag1
(g1904
g1875
(dp2461
g1053
g1067
sg1048
g1064
sg1050
g1065
sg1055
g1056
stRp2462
ag1
(g1904
g1875
(dp2463
g1053
g1054
sg1048
g1049
sg1050
g1051
sg1055
g1056
stRp2464
asg1917
Nsg1918
g1855
sg1920
I100
sg1921
I0
sg1922
I100
sbasS'savePickle'
p2465
I00
sb.