ccopy_reg
_reconstructor
p1
(cpsychopy.data
ExperimentHandler
p2
c__builtin__
object
p3
NtRp4
(dp5
S'originPath'
p6
NsS'dataFileName'
p7
VC:\u005cUsers\u005cJT3012\u005cDropbox\u005csequenceLearning\u005cdata/PA058_sequenceLearningTask_2018_Apr_03_1637
p8
sS'runtimeInfo'
p9
NsS'name'
p10
S'sequenceLearningTask'
p11
sS'dataNames'
p12
(lp13
S'correctKey'
p14
aS'repetitionNumber'
p15
aS'stimulusPresent.t'
p16
aS'trialCorrect'
p17
aS'key_resp_9.keys'
p18
aS'key_resp_9.corr'
p19
aS'key_resp_9.rt'
p20
asS'autoLog'
p21
I01
sS'extraInfo'
p22
(dp23
S'date'
p24
V2018_Apr_03_1637
p25
sS'frameRate'
p26
cnumpy.core.multiarray
scalar
p27
(cnumpy
dtype
p28
(S'f8'
I0
I1
tRp29
(I3
S'<'
NNNI-1
I-1
I0
tbS'Q\xa7\x90\x88|\xffM@'
tRp30
sS'expName'
p31
g11
sS'session'
p32
V001
p33
sS'participant'
p34
V058
p35
ssS'loopsUnfinished'
p36
(lp37
g1
(cpsychopy.data
TrialHandler
p38
g3
NtRp39
(dp40
S'origin'
p41
NsS'thisTrial'
p42
g1
(cpsychopy.data
TrialType
p43
c__builtin__
dict
p44
(dp45
VpawPatrol1
p46
Vmin1.png
p47
sVpawPatrol2
p48
Vmin2.png
p49
sVpawPatrol3
p50
Vmin3.png
p51
sVpawPatrol4
p52
Vmin4.png
p53
sVblank
p54
VallBlank.png
p55
stRp56
sS'_exp'
p57
I410801104
sg10
S'trials_3'
p58
sg6
I-1
sS'thisRepN'
p59
I0
sg21
I01
sg22
g23
sS'data'
p60
g1
(cpsychopy.data
DataHandler
p61
g44
(dp62
g17
cnumpy.ma.core
_mareconstruct
p63
(cnumpy.ma.core
MaskedArray
p64
cnumpy
ndarray
p65
(I0
tp66
S'b'
tRp67
(I1
(I10
I10
tg28
(S'f4'
I0
I1
tRp68
(I3
S'<'
NNNI-1
I-1
I0
tbI00
S'\x00\x00\x80?\x00\x00\x00\x00\x00\x00\x00\x00\x00\x00\x00\x00\x00\x00\x00\x00\x00\x00\x00\x00\x00\x00\x00\x00\x00\x00\x00\x00\x00\x00\x00\x00\x00\x00\x00\x00\x00\x00\x80?\x00\x00\x00\x00\x00\x00\x00\x00\x00\x00\x00\x00\x00\x00\x00\x00\x00\x00\x00\x00\x00\x00\x00\x00\x00\x00\x00\x00\x00\x00\x00\x00\x00\x00\x00\x00\x00\x00\x80?\x00\x00\x00\x00\x00\x00\x00\x00\x00\x00\x00\x00\x00\x00\x00\x00\x00\x00\x00\x00\x00\x00\x00\x00\x00\x00\x00\x00\x00\x00\x00\x00\x00\x00\x00\x00\x00\x00\x00\x00\x00\x00\x00\x00\x00\x00\x00\x00\x00\x00\x00\x00\x00\x00\x00\x00\x00\x00\x00\x00\x00\x00\x00\x00\x00\x00\x00\x00\x00\x00\x00\x00\x00\x00\x00\x00\x00\x00\x00\x00\x00\x00\x00\x00\x00\x00\x00\x00\x00\x00\x00\x00\x00\x00\x00\x00\x00\x00\x00\x00\x00\x00\x00\x00\x00\x00\x00\x00\x00\x00\x00\x00\x00\x00\x00\x00\x00\x00\x80?\x00\x00\x00\x00\x00\x00\x00\x00\x00\x00\x00\x00\x00\x00\x00\x00\x00\x00\x00\x00\x00\x00\x00\x00\x00\x00\x00\x00\x00\x00\x00\x00\x00\x00\x00\x00\x00\x00\x80?\x00\x00\x00\x00\x00\x00\x00\x00\x00\x00\x00\x00\x00\x00\x00\x00\x00\x00\x00\x00\x00\x00\x00\x00\x00\x00\x00\x00\x00\x00\x00\x00\x00\x00\x00\x00\x00\x00\x80?\x00\x00\x00\x00\x00\x00\x00\x00\x00\x00\x00\x00\x00\x00\x00\x00\x00\x00\x00\x00\x00\x00\x00\x00\x00\x00\x00\x00\x00\x00\x00\x00\x00\x00\x00\x00\x00\x00\x00\x00\x00\x00\x00\x00\x00\x00\x00\x00\x00\x00\x00\x00\x00\x00\x00\x00\x00\x00\x00\x00\x00\x00\x00\x00\x00\x00\x00\x00\x00\x00\x00\x00\x00\x00\x00\x00\x00\x00\x80?\x00\x00\x00\x00\x00\x00\x00\x00\x00\x00\x00\x00\x00\x00\x00\x00\x00\x00\x00\x00\x00\x00\x00\x00\x00\x00\x00\x00\x00\x00\x00\x00\x00\x00\x00\x00'
S'\x00\x01\x01\x01\x01\x01\x01\x01\x01\x01\x00\x01\x01\x01\x01\x01\x01\x01\x01\x01\x00\x01\x01\x01\x01\x01\x01\x01\x01\x01\x00\x01\x01\x01\x01\x01\x01\x01\x01\x01\x00\x01\x01\x01\x01\x01\x01\x01\x01\x01\x00\x01\x01\x01\x01\x01\x01\x01\x01\x01\x00\x01\x01\x01\x01\x01\x01\x01\x01\x01\x00\x01\x01\x01\x01\x01\x01\x01\x01\x01\x00\x01\x01\x01\x01\x01\x01\x01\x01\x01\x00\x01\x01\x01\x01\x01\x01\x01\x01\x01'
Ntbsg15
g63
(g64
g65
g66
S'b'
tRp69
(I1
(I10
I10
tg68
I00
S'\x00\x00\x80?\x00\x00\x00\x00\x00\x00\x00\x00\x00\x00\x00\x00\x00\x00\x00\x00\x00\x00\x00\x00\x00\x00\x00\x00\x00\x00\x00\x00\x00\x00\x00\x00\x00\x00\x00\x00\x00\x00\x00@\x00\x00\x00\x00\x00\x00\x00\x00\x00\x00\x00\x00\x00\x00\x00\x00\x00\x00\x00\x00\x00\x00\x00\x00\x00\x00\x00\x00\x00\x00\x00\x00\x00\x00\x00\x00\x00\x00@@\x00\x00\x00\x00\x00\x00\x00\x00\x00\x00\x00\x00\x00\x00\x00\x00\x00\x00\x00\x00\x00\x00\x00\x00\x00\x00\x00\x00\x00\x00\x00\x00\x00\x00\x00\x00\x00\x00\x80@\x00\x00\x00\x00\x00\x00\x00\x00\x00\x00\x00\x00\x00\x00\x00\x00\x00\x00\x00\x00\x00\x00\x00\x00\x00\x00\x00\x00\x00\x00\x00\x00\x00\x00\x00\x00\x00\x00\xa0@\x00\x00\x00\x00\x00\x00\x00\x00\x00\x00\x00\x00\x00\x00\x00\x00\x00\x00\x00\x00\x00\x00\x00\x00\x00\x00\x00\x00\x00\x00\x00\x00\x00\x00\x00\x00\x00\x00\xc0@\x00\x00\x00\x00\x00\x00\x00\x00\x00\x00\x00\x00\x00\x00\x00\x00\x00\x00\x00\x00\x00\x00\x00\x00\x00\x00\x00\x00\x00\x00\x00\x00\x00\x00\x00\x00\x00\x00\xe0@\x00\x00\x00\x00\x00\x00\x00\x00\x00\x00\x00\x00\x00\x00\x00\x00\x00\x00\x00\x00\x00\x00\x00\x00\x00\x00\x00\x00\x00\x00\x00\x00\x00\x00\x00\x00\x00\x00\x00A\x00\x00\x00\x00\x00\x00\x00\x00\x00\x00\x00\x00\x00\x00\x00\x00\x00\x00\x00\x00\x00\x00\x00\x00\x00\x00\x00\x00\x00\x00\x00\x00\x00\x00\x00\x00\x00\x00\x10A\x00\x00\x00\x00\x00\x00\x00\x00\x00\x00\x00\x00\x00\x00\x00\x00\x00\x00\x00\x00\x00\x00\x00\x00\x00\x00\x00\x00\x00\x00\x00\x00\x00\x00\x00\x00\x00\x00 A\x00\x00\x00\x00\x00\x00\x00\x00\x00\x00\x00\x00\x00\x00\x00\x00\x00\x00\x00\x00\x00\x00\x00\x00\x00\x00\x00\x00\x00\x00\x00\x00\x00\x00\x00\x00'
S'\x00\x01\x01\x01\x01\x01\x01\x01\x01\x01\x00\x01\x01\x01\x01\x01\x01\x01\x01\x01\x00\x01\x01\x01\x01\x01\x01\x01\x01\x01\x00\x01\x01\x01\x01\x01\x01\x01\x01\x01\x00\x01\x01\x01\x01\x01\x01\x01\x01\x01\x00\x01\x01\x01\x01\x01\x01\x01\x01\x01\x00\x01\x01\x01\x01\x01\x01\x01\x01\x01\x00\x01\x01\x01\x01\x01\x01\x01\x01\x01\x00\x01\x01\x01\x01\x01\x01\x01\x01\x01\x00\x01\x01\x01\x01\x01\x01\x01\x01\x01'
NtbsS'ran'
p70
g63
(g64
g65
g66
S'b'
tRp71
(I1
(I10
I10
tg68
I00
S'\x00\x00\x80?\x00\x00\x00\x00\x00\x00\x00\x00\x00\x00\x00\x00\x00\x00\x00\x00\x00\x00\x00\x00\x00\x00\x00\x00\x00\x00\x00\x00\x00\x00\x00\x00\x00\x00\x00\x00\x00\x00\x80?\x00\x00\x00\x00\x00\x00\x00\x00\x00\x00\x00\x00\x00\x00\x00\x00\x00\x00\x00\x00\x00\x00\x00\x00\x00\x00\x00\x00\x00\x00\x00\x00\x00\x00\x00\x00\x00\x00\x80?\x00\x00\x00\x00\x00\x00\x00\x00\x00\x00\x00\x00\x00\x00\x00\x00\x00\x00\x00\x00\x00\x00\x00\x00\x00\x00\x00\x00\x00\x00\x00\x00\x00\x00\x00\x00\x00\x00\x80?\x00\x00\x00\x00\x00\x00\x00\x00\x00\x00\x00\x00\x00\x00\x00\x00\x00\x00\x00\x00\x00\x00\x00\x00\x00\x00\x00\x00\x00\x00\x00\x00\x00\x00\x00\x00\x00\x00\x80?\x00\x00\x00\x00\x00\x00\x00\x00\x00\x00\x00\x00\x00\x00\x00\x00\x00\x00\x00\x00\x00\x00\x00\x00\x00\x00\x00\x00\x00\x00\x00\x00\x00\x00\x00\x00\x00\x00\x80?\x00\x00\x00\x00\x00\x00\x00\x00\x00\x00\x00\x00\x00\x00\x00\x00\x00\x00\x00\x00\x00\x00\x00\x00\x00\x00\x00\x00\x00\x00\x00\x00\x00\x00\x00\x00\x00\x00\x80?\x00\x00\x00\x00\x00\x00\x00\x00\x00\x00\x00\x00\x00\x00\x00\x00\x00\x00\x00\x00\x00\x00\x00\x00\x00\x00\x00\x00\x00\x00\x00\x00\x00\x00\x00\x00\x00\x00\x80?\x00\x00\x00\x00\x00\x00\x00\x00\x00\x00\x00\x00\x00\x00\x00\x00\x00\x00\x00\x00\x00\x00\x00\x00\x00\x00\x00\x00\x00\x00\x00\x00\x00\x00\x00\x00\x00\x00\x80?\x00\x00\x00\x00\x00\x00\x00\x00\x00\x00\x00\x00\x00\x00\x00\x00\x00\x00\x00\x00\x00\x00\x00\x00\x00\x00\x00\x00\x00\x00\x00\x00\x00\x00\x00\x00\x00\x00\x80?\x00\x00\x00\x00\x00\x00\x00\x00\x00\x00\x00\x00\x00\x00\x00\x00\x00\x00\x00\x00\x00\x00\x00\x00\x00\x00\x00\x00\x00\x00\x00\x00\x00\x00\x00\x00'
S'\x00\x00\x00\x00\x00\x00\x00\x00\x00\x00\x00\x00\x00\x00\x00\x00\x00\x00\x00\x00\x00\x00\x00\x00\x00\x00\x00\x00\x00\x00\x00\x00\x00\x00\x00\x00\x00\x00\x00\x00\x00\x00\x00\x00\x00\x00\x00\x00\x00\x00\x00\x00\x00\x00\x00\x00\x00\x00\x00\x00\x00\x00\x00\x00\x00\x00\x00\x00\x00\x00\x00\x00\x00\x00\x00\x00\x00\x00\x00\x00\x00\x00\x00\x00\x00\x00\x00\x00\x00\x00\x00\x00\x00\x00\x00\x00\x00\x00\x00\x00'
Ntbsg16
g63
(g64
g65
g66
S'b'
tRp72
(I1
(I10
I10
tg68
I00
S'\x19\x1ey=\x00\x00\x00\x00\x00\x00\x00\x00\x00\x00\x00\x00\x00\x00\x00\x00\x00\x00\x00\x00\x00\x00\x00\x00\x00\x00\x00\x00\x00\x00\x00\x00\x00\x00\x00\x00j\xfaW=\x00\x00\x00\x00\x00\x00\x00\x00\x00\x00\x00\x00\x00\x00\x00\x00\x00\x00\x00\x00\x00\x00\x00\x00\x00\x00\x00\x00\x00\x00\x00\x00\x00\x00\x00\x00\xde\xd4Z=\x00\x00\x00\x00\x00\x00\x00\x00\x00\x00\x00\x00\x00\x00\x00\x00\x00\x00\x00\x00\x00\x00\x00\x00\x00\x00\x00\x00\x00\x00\x00\x00\x00\x00\x00\x00\xc4%p=\x00\x00\x00\x00\x00\x00\x00\x00\x00\x00\x00\x00\x00\x00\x00\x00\x00\x00\x00\x00\x00\x00\x00\x00\x00\x00\x00\x00\x00\x00\x00\x00\x00\x00\x00\x00\x1d\xc8a=\x00\x00\x00\x00\x00\x00\x00\x00\x00\x00\x00\x00\x00\x00\x00\x00\x00\x00\x00\x00\x00\x00\x00\x00\x00\x00\x00\x00\x00\x00\x00\x00\x00\x00\x00\x00)\x10R=\x00\x00\x00\x00\x00\x00\x00\x00\x00\x00\x00\x00\x00\x00\x00\x00\x00\x00\x00\x00\x00\x00\x00\x00\x00\x00\x00\x00\x00\x00\x00\x00\x00\x00\x00\x00\x93\x14Z=\x00\x00\x00\x00\x00\x00\x00\x00\x00\x00\x00\x00\x00\x00\x00\x00\x00\x00\x00\x00\x00\x00\x00\x00\x00\x00\x00\x00\x00\x00\x00\x00\x00\x00\x00\x00\xb2iq=\x00\x00\x00\x00\x00\x00\x00\x00\x00\x00\x00\x00\x00\x00\x00\x00\x00\x00\x00\x00\x00\x00\x00\x00\x00\x00\x00\x00\x00\x00\x00\x00\x00\x00\x00\x00\xb3\x89b=\x00\x00\x00\x00\x00\x00\x00\x00\x00\x00\x00\x00\x00\x00\x00\x00\x00\x00\x00\x00\x00\x00\x00\x00\x00\x00\x00\x00\x00\x00\x00\x00\x00\x00\x00\x00\xd8lX=\x00\x00\x00\x00\x00\x00\x00\x00\x00\x00\x00\x00\x00\x00\x00\x00\x00\x00\x00\x00\x00\x00\x00\x00\x00\x00\x00\x00\x00\x00\x00\x00\x00\x00\x00\x00'
S'\x00\x01\x01\x01\x01\x01\x01\x01\x01\x01\x00\x01\x01\x01\x01\x01\x01\x01\x01\x01\x00\x01\x01\x01\x01\x01\x01\x01\x01\x01\x00\x01\x01\x01\x01\x01\x01\x01\x01\x01\x00\x01\x01\x01\x01\x01\x01\x01\x01\x01\x00\x01\x01\x01\x01\x01\x01\x01\x01\x01\x00\x01\x01\x01\x01\x01\x01\x01\x01\x01\x00\x01\x01\x01\x01\x01\x01\x01\x01\x01\x00\x01\x01\x01\x01\x01\x01\x01\x01\x01\x00\x01\x01\x01\x01\x01\x01\x01\x01\x01'
Ntbsg20
cnumpy.core.multiarray
_reconstruct
p73
(g65
(I0
tS'b'
tRp74
(I1
(I10
I10
tg28
(S'O4'
I0
I1
tRp75
(I3
S'|'
NNNI-1
I-1
I63
tbI00
(lp76
(lp77
F1.6495768818749639
aaS'--'
p78
aS'--'
p79
aS'--'
p80
aS'--'
p81
aS'--'
p82
aS'--'
p83
aS'--'
p84
aS'--'
p85
aS'--'
p86
a(lp87
F2.8419240377152164
aaS'--'
p88
aS'--'
p89
aS'--'
p90
aS'--'
p91
aS'--'
p92
aS'--'
p93
aS'--'
p94
aS'--'
p95
aS'--'
p96
a(lp97
F1.307537767195754
aaS'--'
p98
aS'--'
p99
aS'--'
p100
aS'--'
p101
aS'--'
p102
aS'--'
p103
aS'--'
p104
aS'--'
p105
aS'--'
p106
a(lp107
F0.568343207527505
aF1.168388171648985
aF1.9346182295885228
aaS'--'
p108
aS'--'
p109
aS'--'
p110
aS'--'
p111
aS'--'
p112
aS'--'
p113
aS'--'
p114
aS'--'
p115
aS'--'
p116
a(lp117
F0.00060512845448101871
aF0.088959626238647616
aF0.33920793403376592
aF0.35559768434541184
aaS'--'
p118
aS'--'
p119
aS'--'
p120
aS'--'
p121
aS'--'
p122
aS'--'
p123
aS'--'
p124
aS'--'
p125
aS'--'
p126
a(lp127
F0.75977097836585017
aaS'--'
p128
aS'--'
p129
aS'--'
p130
aS'--'
p131
aS'--'
p132
aS'--'
p133
aS'--'
p134
aS'--'
p135
aS'--'
p136
a(lp137
F1.8412458835882717
aaS'--'
p138
aS'--'
p139
aS'--'
p140
aS'--'
p141
aS'--'
p142
aS'--'
p143
aS'--'
p144
aS'--'
p145
aS'--'
p146
a(lp147
F1.4526467498035345
aaS'--'
p148
aS'--'
p149
aS'--'
p150
aS'--'
p151
aS'--'
p152
aS'--'
p153
aS'--'
p154
aS'--'
p155
aS'--'
p156
a(lp157
F0.93944079566790606
aF1.7894169392493495
aaS'--'
p158
aS'--'
p159
aS'--'
p160
aS'--'
p161
aS'--'
p162
aS'--'
p163
aS'--'
p164
aS'--'
p165
aS'--'
p166
a(lp167
F1.5423907866206719
aaS'--'
p168
aS'--'
p169
aS'--'
p170
aS'--'
p171
aS'--'
p172
aS'--'
p173
aS'--'
p174
aS'--'
p175
aS'--'
p176
atbsg14
g73
(g65
(I0
tS'b'
tRp177
(I1
(I10
I10
tg75
I00
(lp178
(lp179
S'num_0'
p180
aaS'--'
p181
aS'--'
p182
aS'--'
p183
aS'--'
p184
aS'--'
p185
aS'--'
p186
aS'--'
p187
aS'--'
p188
aS'--'
p189
ag179
aS'--'
p190
aS'--'
p191
aS'--'
p192
aS'--'
p193
aS'--'
p194
aS'--'
p195
aS'--'
p196
aS'--'
p197
aS'--'
p198
ag179
aS'--'
p199
aS'--'
p200
aS'--'
p201
aS'--'
p202
aS'--'
p203
aS'--'
p204
aS'--'
p205
aS'--'
p206
aS'--'
p207
ag179
aS'--'
p208
aS'--'
p209
aS'--'
p210
aS'--'
p211
aS'--'
p212
aS'--'
p213
aS'--'
p214
aS'--'
p215
aS'--'
p216
ag179
aS'--'
p217
aS'--'
p218
aS'--'
p219
aS'--'
p220
aS'--'
p221
aS'--'
p222
aS'--'
p223
aS'--'
p224
aS'--'
p225
ag179
aS'--'
p226
aS'--'
p227
aS'--'
p228
aS'--'
p229
aS'--'
p230
aS'--'
p231
aS'--'
p232
aS'--'
p233
aS'--'
p234
ag179
aS'--'
p235
aS'--'
p236
aS'--'
p237
aS'--'
p238
aS'--'
p239
aS'--'
p240
aS'--'
p241
aS'--'
p242
aS'--'
p243
ag179
aS'--'
p244
aS'--'
p245
aS'--'
p246
aS'--'
p247
aS'--'
p248
aS'--'
p249
aS'--'
p250
aS'--'
p251
aS'--'
p252
ag179
aS'--'
p253
aS'--'
p254
aS'--'
p255
aS'--'
p256
aS'--'
p257
aS'--'
p258
aS'--'
p259
aS'--'
p260
aS'--'
p261
ag179
aS'--'
p262
aS'--'
p263
aS'--'
p264
aS'--'
p265
aS'--'
p266
aS'--'
p267
aS'--'
p268
aS'--'
p269
aS'--'
p270
atbsg18
g73
(g65
(I0
tS'b'
tRp271
(I1
(I10
I10
tg75
I00
(lp272
(lp273
S'num_0'
p274
aaS'--'
p275
aS'--'
p276
aS'--'
p277
aS'--'
p278
aS'--'
p279
aS'--'
p280
aS'--'
p281
aS'--'
p282
aS'--'
p283
a(lp284
S'num_0'
p285
aaS'--'
p286
aS'--'
p287
aS'--'
p288
aS'--'
p289
aS'--'
p290
aS'--'
p291
aS'--'
p292
aS'--'
p293
aS'--'
p294
a(lp295
S'num_0'
p296
aaS'--'
p297
aS'--'
p298
aS'--'
p299
aS'--'
p300
aS'--'
p301
aS'--'
p302
aS'--'
p303
aS'--'
p304
aS'--'
p305
a(lp306
S'num_1'
p307
aS'num_0'
p308
aS'num_4'
p309
aS'num_0'
p310
aaS'--'
p311
aS'--'
p312
aS'--'
p313
aS'--'
p314
aS'--'
p315
aS'--'
p316
aS'--'
p317
aS'--'
p318
aS'--'
p319
a(lp320
S'num_0'
p321
aS'num_7'
p322
aS'num_0'
p323
aS'num_7'
p324
aS'num_7'
p325
aS'num_0'
p326
aaS'--'
p327
aS'--'
p328
aS'--'
p329
aS'--'
p330
aS'--'
p331
aS'--'
p332
aS'--'
p333
aS'--'
p334
aS'--'
p335
a(lp336
S'num_0'
p337
aaS'--'
p338
aS'--'
p339
aS'--'
p340
aS'--'
p341
aS'--'
p342
aS'--'
p343
aS'--'
p344
aS'--'
p345
aS'--'
p346
a(lp347
S'num_0'
p348
aaS'--'
p349
aS'--'
p350
aS'--'
p351
aS'--'
p352
aS'--'
p353
aS'--'
p354
aS'--'
p355
aS'--'
p356
aS'--'
p357
a(lp358
S'num_0'
p359
aaS'--'
p360
aS'--'
p361
aS'--'
p362
aS'--'
p363
aS'--'
p364
aS'--'
p365
aS'--'
p366
aS'--'
p367
aS'--'
p368
a(lp369
S'num_1'
p370
aS'num_0'
p371
aaS'--'
p372
aS'--'
p373
aS'--'
p374
aS'--'
p375
aS'--'
p376
aS'--'
p377
aS'--'
p378
aS'--'
p379
aS'--'
p380
a(lp381
S'num_0'
p382
aaS'--'
p383
aS'--'
p384
aS'--'
p385
aS'--'
p386
aS'--'
p387
aS'--'
p388
aS'--'
p389
aS'--'
p390
aS'--'
p391
atbsg19
g63
(g64
g65
g66
S'b'
tRp392
(I1
(I10
I10
tg68
I00
S'\x00\x00\x00\x00\x00\x00\x00\x00\x00\x00\x00\x00\x00\x00\x00\x00\x00\x00\x00\x00\x00\x00\x00\x00\x00\x00\x00\x00\x00\x00\x00\x00\x00\x00\x00\x00\x00\x00\x00\x00\x00\x00\x00\x00\x00\x00\x00\x00\x00\x00\x00\x00\x00\x00\x00\x00\x00\x00\x00\x00\x00\x00\x00\x00\x00\x00\x00\x00\x00\x00\x00\x00\x00\x00\x00\x00\x00\x00\x00\x00\x00\x00\x00\x00\x00\x00\x00\x00\x00\x00\x00\x00\x00\x00\x00\x00\x00\x00\x00\x00\x00\x00\x00\x00\x00\x00\x00\x00\x00\x00\x00\x00\x00\x00\x00\x00\x00\x00\x00\x00\x00\x00\x00\x00\x00\x00\x00\x00\x00\x00\x00\x00\x00\x00\x00\x00\x00\x00\x00\x00\x00\x00\x00\x00\x00\x00\x00\x00\x00\x00\x00\x00\x00\x00\x00\x00\x00\x00\x00\x00\x00\x00\x00\x00\x00\x00\x00\x00\x00\x00\x00\x00\x00\x00\x00\x00\x00\x00\x00\x00\x00\x00\x00\x00\x00\x00\x00\x00\x00\x00\x00\x00\x00\x00\x00\x00\x00\x00\x00\x00\x00\x00\x00\x00\x00\x00\x00\x00\x00\x00\x00\x00\x00\x00\x00\x00\x00\x00\x00\x00\x00\x00\x00\x00\x00\x00\x00\x00\x00\x00\x00\x00\x00\x00\x00\x00\x00\x00\x00\x00\x00\x00\x00\x00\x00\x00\x00\x00\x00\x00\x00\x00\x00\x00\x00\x00\x00\x00\x00\x00\x00\x00\x00\x00\x00\x00\x00\x00\x00\x00\x00\x00\x00\x00\x00\x00\x00\x00\x00\x00\x00\x00\x00\x00\x00\x00\x00\x00\x00\x00\x00\x00\x00\x00\x00\x00\x00\x00\x00\x00\x00\x00\x00\x00\x00\x00\x00\x00\x00\x00\x00\x00\x00\x00\x00\x00\x00\x00\x00\x00\x00\x00\x00\x00\x00\x00\x00\x00\x00\x00\x00\x00\x00\x00\x00\x00\x00\x00\x00\x00\x00\x00\x00\x00\x00\x00\x00\x00\x00\x00\x00\x00\x00\x00\x00\x00\x00\x00\x00\x00\x00\x00\x00\x00\x00\x00\x00\x00\x00\x00\x00\x00\x00\x00\x00\x00\x00\x00\x00\x00\x00\x00\x00\x00\x00\x00\x00\x00\x00\x00\x00\x00\x00\x00\x00\x00\x00\x00\x00\x00'
S'\x00\x01\x01\x01\x01\x01\x01\x01\x01\x01\x00\x01\x01\x01\x01\x01\x01\x01\x01\x01\x00\x01\x01\x01\x01\x01\x01\x01\x01\x01\x00\x01\x01\x01\x01\x01\x01\x01\x01\x01\x00\x01\x01\x01\x01\x01\x01\x01\x01\x01\x00\x01\x01\x01\x01\x01\x01\x01\x01\x01\x00\x01\x01\x01\x01\x01\x01\x01\x01\x01\x00\x01\x01\x01\x01\x01\x01\x01\x01\x01\x00\x01\x01\x01\x01\x01\x01\x01\x01\x01\x00\x01\x01\x01\x01\x01\x01\x01\x01\x01'
NtbsS'order'
p393
g63
(g64
g65
g66
S'b'
tRp394
(I1
(I10
I10
tg68
I00
S'\x00\x00\x00\x00\x00\x00\x00\x00\x00\x00\x00\x00\x00\x00\x00\x00\x00\x00\x00\x00\x00\x00\x00\x00\x00\x00\x00\x00\x00\x00\x00\x00\x00\x00\x00\x00\x00\x00\x00\x00\x00\x00\x80?\x00\x00\x00\x00\x00\x00\x00\x00\x00\x00\x00\x00\x00\x00\x00\x00\x00\x00\x00\x00\x00\x00\x00\x00\x00\x00\x00\x00\x00\x00\x00\x00\x00\x00\x00\x00\x00\x00\x00@\x00\x00\x00\x00\x00\x00\x00\x00\x00\x00\x00\x00\x00\x00\x00\x00\x00\x00\x00\x00\x00\x00\x00\x00\x00\x00\x00\x00\x00\x00\x00\x00\x00\x00\x00\x00\x00\x00@@\x00\x00\x00\x00\x00\x00\x00\x00\x00\x00\x00\x00\x00\x00\x00\x00\x00\x00\x00\x00\x00\x00\x00\x00\x00\x00\x00\x00\x00\x00\x00\x00\x00\x00\x00\x00\x00\x00\x80@\x00\x00\x00\x00\x00\x00\x00\x00\x00\x00\x00\x00\x00\x00\x00\x00\x00\x00\x00\x00\x00\x00\x00\x00\x00\x00\x00\x00\x00\x00\x00\x00\x00\x00\x00\x00\x00\x00\xa0@\x00\x00\x00\x00\x00\x00\x00\x00\x00\x00\x00\x00\x00\x00\x00\x00\x00\x00\x00\x00\x00\x00\x00\x00\x00\x00\x00\x00\x00\x00\x00\x00\x00\x00\x00\x00\x00\x00\xc0@\x00\x00\x00\x00\x00\x00\x00\x00\x00\x00\x00\x00\x00\x00\x00\x00\x00\x00\x00\x00\x00\x00\x00\x00\x00\x00\x00\x00\x00\x00\x00\x00\x00\x00\x00\x00\x00\x00\xe0@\x00\x00\x00\x00\x00\x00\x00\x00\x00\x00\x00\x00\x00\x00\x00\x00\x00\x00\x00\x00\x00\x00\x00\x00\x00\x00\x00\x00\x00\x00\x00\x00\x00\x00\x00\x00\x00\x00\x00A\x00\x00\x00\x00\x00\x00\x00\x00\x00\x00\x00\x00\x00\x00\x00\x00\x00\x00\x00\x00\x00\x00\x00\x00\x00\x00\x00\x00\x00\x00\x00\x00\x00\x00\x00\x00\x00\x00\x10A\x00\x00\x00\x00\x00\x00\x00\x00\x00\x00\x00\x00\x00\x00\x00\x00\x00\x00\x00\x00\x00\x00\x00\x00\x00\x00\x00\x00\x00\x00\x00\x00\x00\x00\x00\x00'
S'\x00\x01\x01\x01\x01\x01\x01\x01\x01\x01\x00\x01\x01\x01\x01\x01\x01\x01\x01\x01\x00\x01\x01\x01\x01\x01\x01\x01\x01\x01\x00\x01\x01\x01\x01\x01\x01\x01\x01\x01\x00\x01\x01\x01\x01\x01\x01\x01\x01\x01\x00\x01\x01\x01\x01\x01\x01\x01\x01\x01\x00\x01\x01\x01\x01\x01\x01\x01\x01\x01\x00\x01\x01\x01\x01\x01\x01\x01\x01\x01\x00\x01\x01\x01\x01\x01\x01\x01\x01\x01\x00\x01\x01\x01\x01\x01\x01\x01\x01\x01'
NtbstRp395
(dp396
S'isNumeric'
p397
(dp398
g17
I01
sg15
I01
sg70
I01
sg16
I01
sg20
I00
sg14
I00
sg18
I00
sg19
I01
sg393
I01
ssS'trials'
p399
g39
sS'dataTypes'
p400
(lp401
g70
ag393
ag14
ag15
ag16
ag17
ag18
ag19
ag20
asS'dataShape'
p402
(lp403
I10
aI10
asbsS'method'
p404
S'sequential'
p405
sS'sequenceIndices'
p406
g73
(g65
(I0
tS'b'
tRp407
(I1
(I10
I10
tg28
(S'i4'
I0
I1
tRp408
(I3
S'<'
NNNI-1
I-1
I0
tbI00
S'\x00\x00\x00\x00\x00\x00\x00\x00\x00\x00\x00\x00\x00\x00\x00\x00\x00\x00\x00\x00\x00\x00\x00\x00\x00\x00\x00\x00\x00\x00\x00\x00\x00\x00\x00\x00\x00\x00\x00\x00\x01\x00\x00\x00\x01\x00\x00\x00\x01\x00\x00\x00\x01\x00\x00\x00\x01\x00\x00\x00\x01\x00\x00\x00\x01\x00\x00\x00\x01\x00\x00\x00\x01\x00\x00\x00\x01\x00\x00\x00\x02\x00\x00\x00\x02\x00\x00\x00\x02\x00\x00\x00\x02\x00\x00\x00\x02\x00\x00\x00\x02\x00\x00\x00\x02\x00\x00\x00\x02\x00\x00\x00\x02\x00\x00\x00\x02\x00\x00\x00\x03\x00\x00\x00\x03\x00\x00\x00\x03\x00\x00\x00\x03\x00\x00\x00\x03\x00\x00\x00\x03\x00\x00\x00\x03\x00\x00\x00\x03\x00\x00\x00\x03\x00\x00\x00\x03\x00\x00\x00\x04\x00\x00\x00\x04\x00\x00\x00\x04\x00\x00\x00\x04\x00\x00\x00\x04\x00\x00\x00\x04\x00\x00\x00\x04\x00\x00\x00\x04\x00\x00\x00\x04\x00\x00\x00\x04\x00\x00\x00\x05\x00\x00\x00\x05\x00\x00\x00\x05\x00\x00\x00\x05\x00\x00\x00\x05\x00\x00\x00\x05\x00\x00\x00\x05\x00\x00\x00\x05\x00\x00\x00\x05\x00\x00\x00\x05\x00\x00\x00\x06\x00\x00\x00\x06\x00\x00\x00\x06\x00\x00\x00\x06\x00\x00\x00\x06\x00\x00\x00\x06\x00\x00\x00\x06\x00\x00\x00\x06\x00\x00\x00\x06\x00\x00\x00\x06\x00\x00\x00\x07\x00\x00\x00\x07\x00\x00\x00\x07\x00\x00\x00\x07\x00\x00\x00\x07\x00\x00\x00\x07\x00\x00\x00\x07\x00\x00\x00\x07\x00\x00\x00\x07\x00\x00\x00\x07\x00\x00\x00\x08\x00\x00\x00\x08\x00\x00\x00\x08\x00\x00\x00\x08\x00\x00\x00\x08\x00\x00\x00\x08\x00\x00\x00\x08\x00\x00\x00\x08\x00\x00\x00\x08\x00\x00\x00\x08\x00\x00\x00\t\x00\x00\x00\t\x00\x00\x00\t\x00\x00\x00\t\x00\x00\x00\t\x00\x00\x00\t\x00\x00\x00\t\x00\x00\x00\t\x00\x00\x00\t\x00\x00\x00\t\x00\x00\x00'
tbsS'finished'
p409
I00
sS'nReps'
p410
I10
sS'nRemaining'
p411
I90
sS'trialList'
p412
(lp413
g1
(g43
g44
(dp414
g46
g47
sg48
g49
sg50
g51
sg52
g53
sg54
g55
stRp415
ag1
(g43
g44
(dp416
g46
g47
sg48
g49
sg50
g51
sg52
g53
sg54
g55
stRp417
ag1
(g43
g44
(dp418
g46
g47
sg48
g49
sg50
g51
sg52
g53
sg54
g55
stRp419
ag1
(g43
g44
(dp420
g46
g47
sg48
g49
sg50
g51
sg52
g53
sg54
g55
stRp421
ag1
(g43
g44
(dp422
g46
g47
sg48
g49
sg50
g51
sg52
g53
sg54
g55
stRp423
ag1
(g43
g44
(dp424
g46
g47
sg48
g49
sg50
g51
sg52
g53
sg54
g55
stRp425
ag1
(g43
g44
(dp426
g46
g47
sg48
g49
sg50
g51
sg52
g53
sg54
g55
stRp427
ag1
(g43
g44
(dp428
g46
g47
sg48
g49
sg50
g51
sg52
g53
sg54
g55
stRp429
ag1
(g43
g44
(dp430
g46
g47
sg48
g49
sg50
g51
sg52
g53
sg54
g55
stRp431
ag56
asS'seed'
p432
NsS'thisIndex'
p433
g27
(g408
S'\t\x00\x00\x00'
tRp434
sS'thisN'
p435
I9
sS'thisTrialN'
p436
I9
sS'nTotal'
p437
I100
sbag1
(g38
g3
NtRp438
(dp439
g41
Nsg42
g1
(g43
g44
(dp440
VpawPatrol1
p441
Vmin1.png
p442
sVpawPatrol2
p443
Vmin2.png
p444
sVpawPatrol3
p445
Vmin3.png
p446
sVpawPatrol4
p447
Vmin4.png
p448
sVblank
p449
VallBlank.png
p450
stRp451
sg57
I410801104
sg10
g58
sg6
I-1
sg59
I0
sg21
I01
sg22
g23
sg60
g1
(g61
g44
(dp452
g17
g63
(g64
g65
g66
S'b'
tRp453
(I1
(I10
I10
tg68
I00
S'\x00\x00\x80?\x00\x00\x00\x00\x00\x00\x00\x00\x00\x00\x00\x00\x00\x00\x00\x00\x00\x00\x00\x00\x00\x00\x00\x00\x00\x00\x00\x00\x00\x00\x00\x00\x00\x00\x00\x00\x00\x00\x80?\x00\x00\x00\x00\x00\x00\x00\x00\x00\x00\x00\x00\x00\x00\x00\x00\x00\x00\x00\x00\x00\x00\x00\x00\x00\x00\x00\x00\x00\x00\x00\x00\x00\x00\x00\x00\x00\x00\x00\x00\x00\x00\x00\x00\x00\x00\x00\x00\x00\x00\x00\x00\x00\x00\x00\x00\x00\x00\x00\x00\x00\x00\x00\x00\x00\x00\x00\x00\x00\x00\x00\x00\x00\x00\x00\x00\x00\x00\x00\x00\x00\x00\x00\x00\x00\x00\x00\x00\x00\x00\x00\x00\x00\x00\x00\x00\x00\x00\x00\x00\x00\x00\x00\x00\x00\x00\x00\x00\x00\x00\x00\x00\x00\x00\x00\x00\x00\x00\x00\x00\x00\x00\x00\x00\x00\x00\x00\x00\x00\x00\x00\x00\x00\x00\x00\x00\x00\x00\x00\x00\x00\x00\x00\x00\x00\x00\x00\x00\x00\x00\x00\x00\x00\x00\x00\x00\x00\x00\x00\x00\x00\x00\x00\x00\x00\x00\x00\x00\x00\x00\x00\x00\x00\x00\x00\x00\x00\x00\x00\x00\x00\x00\x00\x00\x00\x00\x00\x00\x00\x00\x00\x00\x00\x00\x00\x00\x00\x00\x00\x00\x00\x00\x00\x00\x00\x00\x00\x00\x00\x00\x00\x00\x00\x00\x00\x00\x00\x00\x00\x00\x00\x00\x00\x00\x00\x00\x00\x00\x00\x00\x00\x00\x00\x00\x00\x00\x00\x00\x00\x00\x00\x00\x00\x00\x00\x00\x00\x00\x00\x00\x00\x00\x00\x00\x00\x00\x00\x00\x00\x00\x00\x00\x00\x00\x00\x00\x00\x00\x00\x00\x00\x00\x00\x00\x00\x00\x00\x00\x00\x00\x00\x00\x00\x00\x00\x00\x00\x00\x00\x00\x00\x00\x00\x00\x00\x00\x00\x00\x00\x00\x00\x00\x00\x00\x00\x00\x00\x00\x00\x00\x00\x00\x00\x00\x00\x00\x00\x00\x00\x00\x00\x00\x00\x00\x00\x00\x00\x00\x00\x00\x00\x00\x00\x00\x00\x00\x00\x00\x00\x00\x00\x00\x00\x00\x00\x00\x00\x00\x00\x00\x00\x00\x00\x00\x00\x00'
S'\x00\x01\x01\x01\x01\x01\x01\x01\x01\x01\x00\x01\x01\x01\x01\x01\x01\x01\x01\x01\x00\x01\x01\x01\x01\x01\x01\x01\x01\x01\x00\x01\x01\x01\x01\x01\x01\x01\x01\x01\x00\x01\x01\x01\x01\x01\x01\x01\x01\x01\x00\x01\x01\x01\x01\x01\x01\x01\x01\x01\x00\x01\x01\x01\x01\x01\x01\x01\x01\x01\x00\x01\x01\x01\x01\x01\x01\x01\x01\x01\x00\x01\x01\x01\x01\x01\x01\x01\x01\x01\x00\x01\x01\x01\x01\x01\x01\x01\x01\x01'
Ntbsg15
g63
(g64
g65
g66
S'b'
tRp454
(I1
(I10
I10
tg68
I00
S'\x00\x00\x80?\x00\x00\x00\x00\x00\x00\x00\x00\x00\x00\x00\x00\x00\x00\x00\x00\x00\x00\x00\x00\x00\x00\x00\x00\x00\x00\x00\x00\x00\x00\x00\x00\x00\x00\x00\x00\x00\x00\x00@\x00\x00\x00\x00\x00\x00\x00\x00\x00\x00\x00\x00\x00\x00\x00\x00\x00\x00\x00\x00\x00\x00\x00\x00\x00\x00\x00\x00\x00\x00\x00\x00\x00\x00\x00\x00\x00\x00@@\x00\x00\x00\x00\x00\x00\x00\x00\x00\x00\x00\x00\x00\x00\x00\x00\x00\x00\x00\x00\x00\x00\x00\x00\x00\x00\x00\x00\x00\x00\x00\x00\x00\x00\x00\x00\x00\x00\x80@\x00\x00\x00\x00\x00\x00\x00\x00\x00\x00\x00\x00\x00\x00\x00\x00\x00\x00\x00\x00\x00\x00\x00\x00\x00\x00\x00\x00\x00\x00\x00\x00\x00\x00\x00\x00\x00\x00\xa0@\x00\x00\x00\x00\x00\x00\x00\x00\x00\x00\x00\x00\x00\x00\x00\x00\x00\x00\x00\x00\x00\x00\x00\x00\x00\x00\x00\x00\x00\x00\x00\x00\x00\x00\x00\x00\x00\x00\xc0@\x00\x00\x00\x00\x00\x00\x00\x00\x00\x00\x00\x00\x00\x00\x00\x00\x00\x00\x00\x00\x00\x00\x00\x00\x00\x00\x00\x00\x00\x00\x00\x00\x00\x00\x00\x00\x00\x00\xe0@\x00\x00\x00\x00\x00\x00\x00\x00\x00\x00\x00\x00\x00\x00\x00\x00\x00\x00\x00\x00\x00\x00\x00\x00\x00\x00\x00\x00\x00\x00\x00\x00\x00\x00\x00\x00\x00\x00\x00A\x00\x00\x00\x00\x00\x00\x00\x00\x00\x00\x00\x00\x00\x00\x00\x00\x00\x00\x00\x00\x00\x00\x00\x00\x00\x00\x00\x00\x00\x00\x00\x00\x00\x00\x00\x00\x00\x00\x10A\x00\x00\x00\x00\x00\x00\x00\x00\x00\x00\x00\x00\x00\x00\x00\x00\x00\x00\x00\x00\x00\x00\x00\x00\x00\x00\x00\x00\x00\x00\x00\x00\x00\x00\x00\x00\x00\x00 A\x00\x00\x00\x00\x00\x00\x00\x00\x00\x00\x00\x00\x00\x00\x00\x00\x00\x00\x00\x00\x00\x00\x00\x00\x00\x00\x00\x00\x00\x00\x00\x00\x00\x00\x00\x00'
S'\x00\x01\x01\x01\x01\x01\x01\x01\x01\x01\x00\x01\x01\x01\x01\x01\x01\x01\x01\x01\x00\x01\x01\x01\x01\x01\x01\x01\x01\x01\x00\x01\x01\x01\x01\x01\x01\x01\x01\x01\x00\x01\x01\x01\x01\x01\x01\x01\x01\x01\x00\x01\x01\x01\x01\x01\x01\x01\x01\x01\x00\x01\x01\x01\x01\x01\x01\x01\x01\x01\x00\x01\x01\x01\x01\x01\x01\x01\x01\x01\x00\x01\x01\x01\x01\x01\x01\x01\x01\x01\x00\x01\x01\x01\x01\x01\x01\x01\x01\x01'
Ntbsg70
g63
(g64
g65
g66
S'b'
tRp455
(I1
(I10
I10
tg68
I00
S'\x00\x00\x80?\x00\x00\x00\x00\x00\x00\x00\x00\x00\x00\x00\x00\x00\x00\x00\x00\x00\x00\x00\x00\x00\x00\x00\x00\x00\x00\x00\x00\x00\x00\x00\x00\x00\x00\x00\x00\x00\x00\x80?\x00\x00\x00\x00\x00\x00\x00\x00\x00\x00\x00\x00\x00\x00\x00\x00\x00\x00\x00\x00\x00\x00\x00\x00\x00\x00\x00\x00\x00\x00\x00\x00\x00\x00\x00\x00\x00\x00\x80?\x00\x00\x00\x00\x00\x00\x00\x00\x00\x00\x00\x00\x00\x00\x00\x00\x00\x00\x00\x00\x00\x00\x00\x00\x00\x00\x00\x00\x00\x00\x00\x00\x00\x00\x00\x00\x00\x00\x80?\x00\x00\x00\x00\x00\x00\x00\x00\x00\x00\x00\x00\x00\x00\x00\x00\x00\x00\x00\x00\x00\x00\x00\x00\x00\x00\x00\x00\x00\x00\x00\x00\x00\x00\x00\x00\x00\x00\x80?\x00\x00\x00\x00\x00\x00\x00\x00\x00\x00\x00\x00\x00\x00\x00\x00\x00\x00\x00\x00\x00\x00\x00\x00\x00\x00\x00\x00\x00\x00\x00\x00\x00\x00\x00\x00\x00\x00\x80?\x00\x00\x00\x00\x00\x00\x00\x00\x00\x00\x00\x00\x00\x00\x00\x00\x00\x00\x00\x00\x00\x00\x00\x00\x00\x00\x00\x00\x00\x00\x00\x00\x00\x00\x00\x00\x00\x00\x80?\x00\x00\x00\x00\x00\x00\x00\x00\x00\x00\x00\x00\x00\x00\x00\x00\x00\x00\x00\x00\x00\x00\x00\x00\x00\x00\x00\x00\x00\x00\x00\x00\x00\x00\x00\x00\x00\x00\x80?\x00\x00\x00\x00\x00\x00\x00\x00\x00\x00\x00\x00\x00\x00\x00\x00\x00\x00\x00\x00\x00\x00\x00\x00\x00\x00\x00\x00\x00\x00\x00\x00\x00\x00\x00\x00\x00\x00\x80?\x00\x00\x00\x00\x00\x00\x00\x00\x00\x00\x00\x00\x00\x00\x00\x00\x00\x00\x00\x00\x00\x00\x00\x00\x00\x00\x00\x00\x00\x00\x00\x00\x00\x00\x00\x00\x00\x00\x80?\x00\x00\x00\x00\x00\x00\x00\x00\x00\x00\x00\x00\x00\x00\x00\x00\x00\x00\x00\x00\x00\x00\x00\x00\x00\x00\x00\x00\x00\x00\x00\x00\x00\x00\x00\x00'
S'\x00\x00\x00\x00\x00\x00\x00\x00\x00\x00\x00\x00\x00\x00\x00\x00\x00\x00\x00\x00\x00\x00\x00\x00\x00\x00\x00\x00\x00\x00\x00\x00\x00\x00\x00\x00\x00\x00\x00\x00\x00\x00\x00\x00\x00\x00\x00\x00\x00\x00\x00\x00\x00\x00\x00\x00\x00\x00\x00\x00\x00\x00\x00\x00\x00\x00\x00\x00\x00\x00\x00\x00\x00\x00\x00\x00\x00\x00\x00\x00\x00\x00\x00\x00\x00\x00\x00\x00\x00\x00\x00\x00\x00\x00\x00\x00\x00\x00\x00\x00'
Ntbsg16
g63
(g64
g65
g66
S'b'
tRp456
(I1
(I10
I10
tg68
I00
S'\n\xa1j=\x00\x00\x00\x00\x00\x00\x00\x00\x00\x00\x00\x00\x00\x00\x00\x00\x00\x00\x00\x00\x00\x00\x00\x00\x00\x00\x00\x00\x00\x00\x00\x00\x00\x00\x00\x00\x89\x84b=\x00\x00\x00\x00\x00\x00\x00\x00\x00\x00\x00\x00\x00\x00\x00\x00\x00\x00\x00\x00\x00\x00\x00\x00\x00\x00\x00\x00\x00\x00\x00\x00\x00\x00\x00\x00\x9aL7=\x00\x00\x00\x00\x00\x00\x00\x00\x00\x00\x00\x00\x00\x00\x00\x00\x00\x00\x00\x00\x00\x00\x00\x00\x00\x00\x00\x00\x00\x00\x00\x00\x00\x00\x00\x00O\x139=\x00\x00\x00\x00\x00\x00\x00\x00\x00\x00\x00\x00\x00\x00\x00\x00\x00\x00\x00\x00\x00\x00\x00\x00\x00\x00\x00\x00\x00\x00\x00\x00\x00\x00\x00\x00[[_=\x00\x00\x00\x00\x00\x00\x00\x00\x00\x00\x00\x00\x00\x00\x00\x00\x00\x00\x00\x00\x00\x00\x00\x00\x00\x00\x00\x00\x00\x00\x00\x00\x00\x00\x00\x00\xb1\xf1Z=\x00\x00\x00\x00\x00\x00\x00\x00\x00\x00\x00\x00\x00\x00\x00\x00\x00\x00\x00\x00\x00\x00\x00\x00\x00\x00\x00\x00\x00\x00\x00\x00\x00\x00\x00\x00\xcd3\x08=\x00\x00\x00\x00\x00\x00\x00\x00\x00\x00\x00\x00\x00\x00\x00\x00\x00\x00\x00\x00\x00\x00\x00\x00\x00\x00\x00\x00\x00\x00\x00\x00\x00\x00\x00\x00\xc6\x0b_=\x00\x00\x00\x00\x00\x00\x00\x00\x00\x00\x00\x00\x00\x00\x00\x00\x00\x00\x00\x00\x00\x00\x00\x00\x00\x00\x00\x00\x00\x00\x00\x00\x00\x00\x00\x00\xa66M=\x00\x00\x00\x00\x00\x00\x00\x00\x00\x00\x00\x00\x00\x00\x00\x00\x00\x00\x00\x00\x00\x00\x00\x00\x00\x00\x00\x00\x00\x00\x00\x00\x00\x00\x00\x00h\xccl=\x00\x00\x00\x00\x00\x00\x00\x00\x00\x00\x00\x00\x00\x00\x00\x00\x00\x00\x00\x00\x00\x00\x00\x00\x00\x00\x00\x00\x00\x00\x00\x00\x00\x00\x00\x00'
S'\x00\x01\x01\x01\x01\x01\x01\x01\x01\x01\x00\x01\x01\x01\x01\x01\x01\x01\x01\x01\x00\x01\x01\x01\x01\x01\x01\x01\x01\x01\x00\x01\x01\x01\x01\x01\x01\x01\x01\x01\x00\x01\x01\x01\x01\x01\x01\x01\x01\x01\x00\x01\x01\x01\x01\x01\x01\x01\x01\x01\x00\x01\x01\x01\x01\x01\x01\x01\x01\x01\x00\x01\x01\x01\x01\x01\x01\x01\x01\x01\x00\x01\x01\x01\x01\x01\x01\x01\x01\x01\x00\x01\x01\x01\x01\x01\x01\x01\x01\x01'
Ntbsg20
g73
(g65
(I0
tS'b'
tRp457
(I1
(I10
I10
tg75
I00
(lp458
(lp459
F0.85384978619549656
aaS'--'
p460
aS'--'
p461
aS'--'
p462
aS'--'
p463
aS'--'
p464
aS'--'
p465
aS'--'
p466
aS'--'
p467
aS'--'
p468
a(lp469
F0.40535483296480379
aaS'--'
p470
aS'--'
p471
aS'--'
p472
aS'--'
p473
aS'--'
p474
aS'--'
p475
aS'--'
p476
aS'--'
p477
aS'--'
p478
a(lp479
F0.00029661550797754899
aF0.41776345344260335
aF0.76666862222191412
aF1.0003593847613956
aF1.2334807111728878
aaS'--'
p480
aS'--'
p481
aS'--'
p482
aS'--'
p483
aS'--'
p484
aS'--'
p485
aS'--'
p486
aS'--'
p487
aS'--'
p488
a(lp489
F0.00038030784708098508
aF0.14908929193188669
aaS'--'
p490
aS'--'
p491
aS'--'
p492
aS'--'
p493
aS'--'
p494
aS'--'
p495
aS'--'
p496
aS'--'
p497
aS'--'
p498
a(lp499
F0.0005214361117396038
aF1.1055655817690422
aF1.6213081523310393
aF2.1050576841262227
aF2.9711782445847348
aaS'--'
p500
aS'--'
p501
aS'--'
p502
aS'--'
p503
aS'--'
p504
aS'--'
p505
aS'--'
p506
aS'--'
p507
aS'--'
p508
a(lp509
F0.00068676951195811853
aF0.12364230713501456
aF0.2409978424620931
aaS'--'
p510
aS'--'
p511
aS'--'
p512
aS'--'
p513
aS'--'
p514
aS'--'
p515
aS'--'
p516
aS'--'
p517
aS'--'
p518
a(lp519
F0.00028143601593910716
aF0.58307675203104736
aF0.81291725658229552
aF0.96271383085695561
aF1.1633444772705843
aF1.3965363678107678
aF1.7290944529631815
aF1.7464142549397366
aF1.9969333320768783
aF2.1624964769216604
aF2.3300132635959017
aF2.529724935273407
aF2.8293074171524495
aF2.8796048736840021
aF8.1125177897520189
aaS'--'
p520
aS'--'
p521
aS'--'
p522
aS'--'
p523
aS'--'
p524
aS'--'
p525
aS'--'
p526
aS'--'
p527
aS'--'
p528
a(lp529
F0.00033271808570134453
aF0.14031718577098218
aF0.32336587625468383
aF0.34037798579811351
aaS'--'
p530
aS'--'
p531
aS'--'
p532
aS'--'
p533
aS'--'
p534
aS'--'
p535
aS'--'
p536
aS'--'
p537
aS'--'
p538
a(lp539
F0.0013300518294272479
aF0.043908941090194276
aF9.2110634712043975
aF9.428482227067434
aF9.5259009337023599
aF10.859876455331687
aF11.391851647938893
aaS'--'
p540
aS'--'
p541
aS'--'
p542
aS'--'
p543
aS'--'
p544
aS'--'
p545
aS'--'
p546
aS'--'
p547
aS'--'
p548
a(lp549
F0.00070851311102160253
aF0.23566737873261445
aF0.68540458888310241
aaS'--'
p550
aS'--'
p551
aS'--'
p552
aS'--'
p553
aS'--'
p554
aS'--'
p555
aS'--'
p556
aS'--'
p557
aS'--'
p558
atbsg14
g73
(g65
(I0
tS'b'
tRp559
(I1
(I10
I10
tg75
I00
(lp560
(lp561
g180
aaS'--'
p562
aS'--'
p563
aS'--'
p564
aS'--'
p565
aS'--'
p566
aS'--'
p567
aS'--'
p568
aS'--'
p569
aS'--'
p570
ag561
aS'--'
p571
aS'--'
p572
aS'--'
p573
aS'--'
p574
aS'--'
p575
aS'--'
p576
aS'--'
p577
aS'--'
p578
aS'--'
p579
ag561
aS'--'
p580
aS'--'
p581
aS'--'
p582
aS'--'
p583
aS'--'
p584
aS'--'
p585
aS'--'
p586
aS'--'
p587
aS'--'
p588
ag561
aS'--'
p589
aS'--'
p590
aS'--'
p591
aS'--'
p592
aS'--'
p593
aS'--'
p594
aS'--'
p595
aS'--'
p596
aS'--'
p597
ag561
aS'--'
p598
aS'--'
p599
aS'--'
p600
aS'--'
p601
aS'--'
p602
aS'--'
p603
aS'--'
p604
aS'--'
p605
aS'--'
p606
ag561
aS'--'
p607
aS'--'
p608
aS'--'
p609
aS'--'
p610
aS'--'
p611
aS'--'
p612
aS'--'
p613
aS'--'
p614
aS'--'
p615
ag561
aS'--'
p616
aS'--'
p617
aS'--'
p618
aS'--'
p619
aS'--'
p620
aS'--'
p621
aS'--'
p622
aS'--'
p623
aS'--'
p624
ag561
aS'--'
p625
aS'--'
p626
aS'--'
p627
aS'--'
p628
aS'--'
p629
aS'--'
p630
aS'--'
p631
aS'--'
p632
aS'--'
p633
ag561
aS'--'
p634
aS'--'
p635
aS'--'
p636
aS'--'
p637
aS'--'
p638
aS'--'
p639
aS'--'
p640
aS'--'
p641
aS'--'
p642
ag561
aS'--'
p643
aS'--'
p644
aS'--'
p645
aS'--'
p646
aS'--'
p647
aS'--'
p648
aS'--'
p649
aS'--'
p650
aS'--'
p651
atbsg18
g73
(g65
(I0
tS'b'
tRp652
(I1
(I10
I10
tg75
I00
(lp653
(lp654
S'num_0'
p655
aaS'--'
p656
aS'--'
p657
aS'--'
p658
aS'--'
p659
aS'--'
p660
aS'--'
p661
aS'--'
p662
aS'--'
p663
aS'--'
p664
a(lp665
S'num_0'
p666
aaS'--'
p667
aS'--'
p668
aS'--'
p669
aS'--'
p670
aS'--'
p671
aS'--'
p672
aS'--'
p673
aS'--'
p674
aS'--'
p675
a(lp676
S'num_0'
p677
aS'num_4'
p678
aS'num_1'
p679
aS'num_0'
p680
aS'num_4'
p681
aS'num_7'
p682
aS'num_0'
p683
aaS'--'
p684
aS'--'
p685
aS'--'
p686
aS'--'
p687
aS'--'
p688
aS'--'
p689
aS'--'
p690
aS'--'
p691
aS'--'
p692
a(lp693
S'num_1'
p694
aS'num_0'
p695
aaS'--'
p696
aS'--'
p697
aS'--'
p698
aS'--'
p699
aS'--'
p700
aS'--'
p701
aS'--'
p702
aS'--'
p703
aS'--'
p704
a(lp705
S'num_0'
p706
aS'num_7'
p707
aS'num_4'
p708
aS'num_1'
p709
aS'num_0'
p710
aaS'--'
p711
aS'--'
p712
aS'--'
p713
aS'--'
p714
aS'--'
p715
aS'--'
p716
aS'--'
p717
aS'--'
p718
aS'--'
p719
a(lp720
S'num_4'
p721
aS'num_7'
p722
aS'num_4'
p723
aS'num_0'
p724
aS'num_7'
p725
aS'num_0'
p726
aaS'--'
p727
aS'--'
p728
aS'--'
p729
aS'--'
p730
aS'--'
p731
aS'--'
p732
aS'--'
p733
aS'--'
p734
aS'--'
p735
a(lp736
S'num_7'
p737
aS'num_4'
p738
aS'num_1'
p739
aS'num_0'
p740
aS'num_7'
p741
aS'num_4'
p742
aS'num_1'
p743
aS'num_0'
p744
aS'num_4'
p745
aS'num_1'
p746
aS'num_0'
p747
aS'num_4'
p748
aS'num_7'
p749
aS'num_7'
p750
aS'num_4'
p751
aS'num_4'
p752
aS'num_1'
p753
aS'num_1'
p754
aS'num_4'
p755
aS'num_4'
p756
aS'num_1'
p757
aS'num_7'
p758
aS'num_4'
p759
aS'num_7'
p760
aS'num_1'
p761
aS'num_0'
p762
aaS'--'
p763
aS'--'
p764
aS'--'
p765
aS'--'
p766
aS'--'
p767
aS'--'
p768
aS'--'
p769
aS'--'
p770
aS'--'
p771
a(lp772
S'num_0'
p773
aS'num_7'
p774
aS'num_4'
p775
aS'num_1'
p776
aS'num_7'
p777
aS'num_1'
p778
aS'num_0'
p779
aaS'--'
p780
aS'--'
p781
aS'--'
p782
aS'--'
p783
aS'--'
p784
aS'--'
p785
aS'--'
p786
aS'--'
p787
aS'--'
p788
a(lp789
S'num_0'
p790
aS'num_7'
p791
aS'num_4'
p792
aS'num_1'
p793
aS'num_0'
p794
aS'num_7'
p795
aS'num_4'
p796
aS'num_7'
p797
aS'num_1'
p798
aS'num_0'
p799
aS'num_4'
p800
aS'num_4'
p801
aS'num_0'
p802
aS'num_4'
p803
aS'num_0'
p804
aS'num_7'
p805
aS'num_4'
p806
aS'num_0'
p807
aaS'--'
p808
aS'--'
p809
aS'--'
p810
aS'--'
p811
aS'--'
p812
aS'--'
p813
aS'--'
p814
aS'--'
p815
aS'--'
p816
a(lp817
S'num_1'
p818
aS'num_1'
p819
aS'num_1'
p820
aS'num_1'
p821
aS'num_0'
p822
aaS'--'
p823
aS'--'
p824
aS'--'
p825
aS'--'
p826
aS'--'
p827
aS'--'
p828
aS'--'
p829
aS'--'
p830
aS'--'
p831
atbsg19
g63
(g64
g65
g66
S'b'
tRp832
(I1
(I10
I10
tg68
I00
S'\x00\x00\x00\x00\x00\x00\x00\x00\x00\x00\x00\x00\x00\x00\x00\x00\x00\x00\x00\x00\x00\x00\x00\x00\x00\x00\x00\x00\x00\x00\x00\x00\x00\x00\x00\x00\x00\x00\x00\x00\x00\x00\x00\x00\x00\x00\x00\x00\x00\x00\x00\x00\x00\x00\x00\x00\x00\x00\x00\x00\x00\x00\x00\x00\x00\x00\x00\x00\x00\x00\x00\x00\x00\x00\x00\x00\x00\x00\x00\x00\x00\x00\x00\x00\x00\x00\x00\x00\x00\x00\x00\x00\x00\x00\x00\x00\x00\x00\x00\x00\x00\x00\x00\x00\x00\x00\x00\x00\x00\x00\x00\x00\x00\x00\x00\x00\x00\x00\x00\x00\x00\x00\x00\x00\x00\x00\x00\x00\x00\x00\x00\x00\x00\x00\x00\x00\x00\x00\x00\x00\x00\x00\x00\x00\x00\x00\x00\x00\x00\x00\x00\x00\x00\x00\x00\x00\x00\x00\x00\x00\x00\x00\x00\x00\x00\x00\x00\x00\x00\x00\x00\x00\x00\x00\x00\x00\x00\x00\x00\x00\x00\x00\x00\x00\x00\x00\x00\x00\x00\x00\x00\x00\x00\x00\x00\x00\x00\x00\x00\x00\x00\x00\x00\x00\x00\x00\x00\x00\x00\x00\x00\x00\x00\x00\x00\x00\x00\x00\x00\x00\x00\x00\x00\x00\x00\x00\x00\x00\x00\x00\x00\x00\x00\x00\x00\x00\x00\x00\x00\x00\x00\x00\x00\x00\x00\x00\x00\x00\x00\x00\x00\x00\x00\x00\x00\x00\x00\x00\x00\x00\x00\x00\x00\x00\x00\x00\x00\x00\x00\x00\x00\x00\x00\x00\x00\x00\x00\x00\x00\x00\x00\x00\x00\x00\x00\x00\x00\x00\x00\x00\x00\x00\x00\x00\x00\x00\x00\x00\x00\x00\x00\x00\x00\x00\x00\x00\x00\x00\x00\x00\x00\x00\x00\x00\x00\x00\x00\x00\x00\x00\x00\x00\x00\x00\x00\x00\x00\x00\x00\x00\x00\x00\x00\x00\x00\x00\x00\x00\x00\x00\x00\x00\x00\x00\x00\x00\x00\x00\x00\x00\x00\x00\x00\x00\x00\x00\x00\x00\x00\x00\x00\x00\x00\x00\x00\x00\x00\x00\x00\x00\x00\x00\x00\x00\x00\x00\x00\x00\x00\x00\x00\x00\x00\x00\x00\x00\x00\x00\x00\x00\x00\x00\x00\x00\x00\x00\x00\x00\x00\x00'
S'\x00\x01\x01\x01\x01\x01\x01\x01\x01\x01\x00\x01\x01\x01\x01\x01\x01\x01\x01\x01\x00\x01\x01\x01\x01\x01\x01\x01\x01\x01\x00\x01\x01\x01\x01\x01\x01\x01\x01\x01\x00\x01\x01\x01\x01\x01\x01\x01\x01\x01\x00\x01\x01\x01\x01\x01\x01\x01\x01\x01\x00\x01\x01\x01\x01\x01\x01\x01\x01\x01\x00\x01\x01\x01\x01\x01\x01\x01\x01\x01\x00\x01\x01\x01\x01\x01\x01\x01\x01\x01\x00\x01\x01\x01\x01\x01\x01\x01\x01\x01'
Ntbsg393
g63
(g64
g65
g66
S'b'
tRp833
(I1
(I10
I10
tg68
I00
S'\x00\x00\x00\x00\x00\x00\x00\x00\x00\x00\x00\x00\x00\x00\x00\x00\x00\x00\x00\x00\x00\x00\x00\x00\x00\x00\x00\x00\x00\x00\x00\x00\x00\x00\x00\x00\x00\x00\x00\x00\x00\x00\x80?\x00\x00\x00\x00\x00\x00\x00\x00\x00\x00\x00\x00\x00\x00\x00\x00\x00\x00\x00\x00\x00\x00\x00\x00\x00\x00\x00\x00\x00\x00\x00\x00\x00\x00\x00\x00\x00\x00\x00@\x00\x00\x00\x00\x00\x00\x00\x00\x00\x00\x00\x00\x00\x00\x00\x00\x00\x00\x00\x00\x00\x00\x00\x00\x00\x00\x00\x00\x00\x00\x00\x00\x00\x00\x00\x00\x00\x00@@\x00\x00\x00\x00\x00\x00\x00\x00\x00\x00\x00\x00\x00\x00\x00\x00\x00\x00\x00\x00\x00\x00\x00\x00\x00\x00\x00\x00\x00\x00\x00\x00\x00\x00\x00\x00\x00\x00\x80@\x00\x00\x00\x00\x00\x00\x00\x00\x00\x00\x00\x00\x00\x00\x00\x00\x00\x00\x00\x00\x00\x00\x00\x00\x00\x00\x00\x00\x00\x00\x00\x00\x00\x00\x00\x00\x00\x00\xa0@\x00\x00\x00\x00\x00\x00\x00\x00\x00\x00\x00\x00\x00\x00\x00\x00\x00\x00\x00\x00\x00\x00\x00\x00\x00\x00\x00\x00\x00\x00\x00\x00\x00\x00\x00\x00\x00\x00\xc0@\x00\x00\x00\x00\x00\x00\x00\x00\x00\x00\x00\x00\x00\x00\x00\x00\x00\x00\x00\x00\x00\x00\x00\x00\x00\x00\x00\x00\x00\x00\x00\x00\x00\x00\x00\x00\x00\x00\xe0@\x00\x00\x00\x00\x00\x00\x00\x00\x00\x00\x00\x00\x00\x00\x00\x00\x00\x00\x00\x00\x00\x00\x00\x00\x00\x00\x00\x00\x00\x00\x00\x00\x00\x00\x00\x00\x00\x00\x00A\x00\x00\x00\x00\x00\x00\x00\x00\x00\x00\x00\x00\x00\x00\x00\x00\x00\x00\x00\x00\x00\x00\x00\x00\x00\x00\x00\x00\x00\x00\x00\x00\x00\x00\x00\x00\x00\x00\x10A\x00\x00\x00\x00\x00\x00\x00\x00\x00\x00\x00\x00\x00\x00\x00\x00\x00\x00\x00\x00\x00\x00\x00\x00\x00\x00\x00\x00\x00\x00\x00\x00\x00\x00\x00\x00'
S'\x00\x01\x01\x01\x01\x01\x01\x01\x01\x01\x00\x01\x01\x01\x01\x01\x01\x01\x01\x01\x00\x01\x01\x01\x01\x01\x01\x01\x01\x01\x00\x01\x01\x01\x01\x01\x01\x01\x01\x01\x00\x01\x01\x01\x01\x01\x01\x01\x01\x01\x00\x01\x01\x01\x01\x01\x01\x01\x01\x01\x00\x01\x01\x01\x01\x01\x01\x01\x01\x01\x00\x01\x01\x01\x01\x01\x01\x01\x01\x01\x00\x01\x01\x01\x01\x01\x01\x01\x01\x01\x00\x01\x01\x01\x01\x01\x01\x01\x01\x01'
NtbstRp834
(dp835
g397
(dp836
g17
I01
sg15
I01
sg70
I01
sg16
I01
sg20
I00
sg14
I00
sg18
I00
sg19
I01
sg393
I01
ssg399
g438
sg400
(lp837
g70
ag393
ag14
ag15
ag16
ag17
ag18
ag19
ag20
asg402
(lp838
I10
aI10
asbsg404
g405
sg406
g73
(g65
(I0
tS'b'
tRp839
(I1
(I10
I10
tg408
I00
S'\x00\x00\x00\x00\x00\x00\x00\x00\x00\x00\x00\x00\x00\x00\x00\x00\x00\x00\x00\x00\x00\x00\x00\x00\x00\x00\x00\x00\x00\x00\x00\x00\x00\x00\x00\x00\x00\x00\x00\x00\x01\x00\x00\x00\x01\x00\x00\x00\x01\x00\x00\x00\x01\x00\x00\x00\x01\x00\x00\x00\x01\x00\x00\x00\x01\x00\x00\x00\x01\x00\x00\x00\x01\x00\x00\x00\x01\x00\x00\x00\x02\x00\x00\x00\x02\x00\x00\x00\x02\x00\x00\x00\x02\x00\x00\x00\x02\x00\x00\x00\x02\x00\x00\x00\x02\x00\x00\x00\x02\x00\x00\x00\x02\x00\x00\x00\x02\x00\x00\x00\x03\x00\x00\x00\x03\x00\x00\x00\x03\x00\x00\x00\x03\x00\x00\x00\x03\x00\x00\x00\x03\x00\x00\x00\x03\x00\x00\x00\x03\x00\x00\x00\x03\x00\x00\x00\x03\x00\x00\x00\x04\x00\x00\x00\x04\x00\x00\x00\x04\x00\x00\x00\x04\x00\x00\x00\x04\x00\x00\x00\x04\x00\x00\x00\x04\x00\x00\x00\x04\x00\x00\x00\x04\x00\x00\x00\x04\x00\x00\x00\x05\x00\x00\x00\x05\x00\x00\x00\x05\x00\x00\x00\x05\x00\x00\x00\x05\x00\x00\x00\x05\x00\x00\x00\x05\x00\x00\x00\x05\x00\x00\x00\x05\x00\x00\x00\x05\x00\x00\x00\x06\x00\x00\x00\x06\x00\x00\x00\x06\x00\x00\x00\x06\x00\x00\x00\x06\x00\x00\x00\x06\x00\x00\x00\x06\x00\x00\x00\x06\x00\x00\x00\x06\x00\x00\x00\x06\x00\x00\x00\x07\x00\x00\x00\x07\x00\x00\x00\x07\x00\x00\x00\x07\x00\x00\x00\x07\x00\x00\x00\x07\x00\x00\x00\x07\x00\x00\x00\x07\x00\x00\x00\x07\x00\x00\x00\x07\x00\x00\x00\x08\x00\x00\x00\x08\x00\x00\x00\x08\x00\x00\x00\x08\x00\x00\x00\x08\x00\x00\x00\x08\x00\x00\x00\x08\x00\x00\x00\x08\x00\x00\x00\x08\x00\x00\x00\x08\x00\x00\x00\t\x00\x00\x00\t\x00\x00\x00\t\x00\x00\x00\t\x00\x00\x00\t\x00\x00\x00\t\x00\x00\x00\t\x00\x00\x00\t\x00\x00\x00\t\x00\x00\x00\t\x00\x00\x00'
tbsg409
I00
sg410
I10
sg411
I90
sg412
(lp840
g1
(g43
g44
(dp841
g441
g442
sg443
g444
sg445
g446
sg447
g448
sg449
g450
stRp842
ag1
(g43
g44
(dp843
g441
g442
sg443
g444
sg445
g446
sg447
g448
sg449
g450
stRp844
ag1
(g43
g44
(dp845
g441
g442
sg443
g444
sg445
g446
sg447
g448
sg449
g450
stRp846
ag1
(g43
g44
(dp847
g441
g442
sg443
g444
sg445
g446
sg447
g448
sg449
g450
stRp848
ag1
(g43
g44
(dp849
g441
g442
sg443
g444
sg445
g446
sg447
g448
sg449
g450
stRp850
ag1
(g43
g44
(dp851
g441
g442
sg443
g444
sg445
g446
sg447
g448
sg449
g450
stRp852
ag1
(g43
g44
(dp853
g441
g442
sg443
g444
sg445
g446
sg447
g448
sg449
g450
stRp854
ag1
(g43
g44
(dp855
g441
g442
sg443
g444
sg445
g446
sg447
g448
sg449
g450
stRp856
ag1
(g43
g44
(dp857
g441
g442
sg443
g444
sg445
g446
sg447
g448
sg449
g450
stRp858
ag451
asg432
Nsg433
g27
(g408
S'\t\x00\x00\x00'
tRp859
sg435
I9
sg436
I9
sg437
I100
sbasS'saveWideText'
p860
I00
sS'thisEntry'
p861
(dp862
sS'version'
p863
S''
sS'_paramNamesSoFar'
p864
(lp865
g46
ag48
ag50
ag52
ag54
asS'entries'
p866
(lp867
(dp868
g32
g33
sg17
I1
sS'trials_3.thisN'
p869
I0
sg34
g35
sg15
I1
sg46
g47
sg16
F0.068471822960418649
sg20
(lp870
F0.66041873247741023
asg26
g30
sg14
(lp871
S'num_7'
p872
asg18
(lp873
S'num_7'
p874
asg54
g55
sS'trials_3.thisRepN'
p875
I0
sg48
g49
sg50
g51
sg52
g53
sS'trials_3.thisIndex'
p876
g27
(g408
S'\x00\x00\x00\x00'
tRp877
sg24
g25
sg19
I0
sS'trials_3.thisTrialN'
p878
I0
sg31
g11
sa(dp879
g32
g33
sg17
I0
sS'trials_3.thisN'
p880
I0
sg34
g35
sg15
I1
sg46
g47
sg16
F0.061961871575476835
sg20
(lp881
F0.56592064242795459
aF4.6331953366970993
asg26
g30
sg14
(lp882
S'num_1'
p883
asg18
(lp884
S'num_4'
p885
aS'num_1'
p886
asg54
g55
sS'trials_3.thisRepN'
p887
I0
sg48
g49
sg50
g51
sg52
g53
sS'trials_3.thisIndex'
p888
g877
sg24
g25
sg19
I0
sS'trials_3.thisTrialN'
p889
I0
sg31
g11
sa(dp890
g32
g33
sg17
I1
sS'trials_3.thisN'
p891
I0
sg34
g35
sg15
I1
sg46
g47
sg16
F0.057224228603445226
sg20
(lp892
F2.6039772734293365
asg26
g30
sg14
(lp893
S'num_4'
p894
asg18
(lp895
S'num_4'
p896
asg54
g55
sS'trials_3.thisRepN'
p897
I0
sg48
g49
sg50
g51
sg52
g53
sS'trials_3.thisIndex'
p898
g877
sg24
g25
sg19
I0
sS'trials_3.thisTrialN'
p899
I0
sg31
g11
sa(dp900
g32
g33
sg17
I1
sS'trials_3.thisN'
p901
I0
sg34
g35
sg15
I1
sg46
g47
sg16
F0.052128841900412226
sg20
(lp902
F1.2431553818059911
asg26
g30
sg14
(lp903
g180
asg18
(lp904
S'num_0'
p905
asg54
g55
sS'trials_3.thisRepN'
p906
I0
sg48
g49
sg50
g51
sg52
g53
sS'trials_3.thisIndex'
p907
g877
sg24
g25
sg19
I0
sS'trials_3.thisTrialN'
p908
I0
sg31
g11
sa(dp909
g32
g33
sg17
I1
sS'trials_3.thisN'
p910
I0
sg34
g35
sg15
I1
sg46
g47
sg16
F0.056655612985196058
sg20
(lp911
F4.4543427504977444
asg26
g30
sg14
(lp912
g180
asg18
(lp913
S'num_0'
p914
asg54
g55
sS'trials_3.thisRepN'
p915
I0
sg48
g49
sg50
g51
sg52
g53
sS'trials_3.thisIndex'
p916
g877
sg24
g25
sg19
I0
sS'trials_3.thisTrialN'
p917
I0
sg31
g11
sa(dp918
g32
g33
sg17
I1
sS'trials_3.thisN'
p919
I0
sg34
g35
sg15
I1
sg46
g47
sg16
F0.059877357900404604
sg20
(lp920
F2.251150872267317
asg26
g30
sg14
(lp921
g894
asg18
(lp922
S'num_4'
p923
asg54
g55
sS'trials_3.thisRepN'
p924
I0
sg48
g49
sg50
g51
sg52
g53
sS'trials_3.thisIndex'
p925
g877
sg24
g25
sg19
I0
sS'trials_3.thisTrialN'
p926
I0
sg31
g11
sa(dp927
g32
g33
sg17
I1
sS'trials_3.thisN'
p928
I0
sg34
g35
sg15
I1
sg46
g47
sg16
F0.058574793263687752
sg20
(lp929
F1.4044338069470541
asg26
g30
sg14
(lp930
g883
asg18
(lp931
S'num_1'
p932
asg54
g55
sS'trials_3.thisRepN'
p933
I0
sg48
g49
sg50
g51
sg52
g53
sS'trials_3.thisIndex'
p934
g877
sg24
g25
sg19
I0
sS'trials_3.thisTrialN'
p935
I0
sg31
g11
sa(dp936
g32
g33
sg17
I1
sS'trials_3.thisN'
p937
I0
sg34
g35
sg15
I1
sg46
g47
sg16
F0.060819717258709716
sg20
(lp938
F1.6495768818749639
asg26
g30
sg14
(lp939
g180
asg18
(lp940
g274
asg54
g55
sS'trials_3.thisRepN'
p941
I0
sg48
g49
sg50
g51
sg52
g53
sS'trials_3.thisIndex'
p942
g877
sg24
g25
sg19
I0
sS'trials_3.thisTrialN'
p943
I0
sg31
g11
sa(dp944
g32
g33
sg17
I1
sS'trials_3.thisN'
p945
I1
sg34
g35
sg15
I2
sg46
g47
sg16
F0.060371306819433812
sg20
(lp946
F0.94896695341958548
asg26
g30
sg14
(lp947
g872
asg18
(lp948
S'num_7'
p949
asg54
g55
sS'trials_3.thisRepN'
p950
I0
sg48
g49
sg50
g51
sg52
g53
sS'trials_3.thisIndex'
p951
g27
(g408
S'\x01\x00\x00\x00'
tRp952
sg24
g25
sg19
I0
sS'trials_3.thisTrialN'
p953
I1
sg31
g11
sa(dp954
g32
g33
sg17
I1
sS'trials_3.thisN'
p955
I1
sg34
g35
sg15
I2
sg46
g47
sg16
F0.06197335875913268
sg20
(lp956
F1.9158986321635894
asg26
g30
sg14
(lp957
g883
asg18
(lp958
S'num_1'
p959
asg54
g55
sS'trials_3.thisRepN'
p960
I0
sg48
g49
sg50
g51
sg52
g53
sS'trials_3.thisIndex'
p961
g952
sg24
g25
sg19
I0
sS'trials_3.thisTrialN'
p962
I1
sg31
g11
sa(dp963
g32
g33
sg17
I0
sS'trials_3.thisN'
p964
I1
sg34
g35
sg15
I2
sg46
g47
sg16
F0.055141355955129256
sg20
(lp965
F0.00041928222344722599
aF2.4898381496750517
aF2.5233515993204492
aF3.6896400777986855
aF4.6900778215676837
aF5.3234085429357947
aF6.1569428336151759
aF6.5900178830816003
asg26
g30
sg14
(lp966
g894
asg18
(lp967
S'num_4'
p968
aS'num_4'
p969
aS'num_1'
p970
aS'num_7'
p971
aS'num_4'
p972
aS'num_1'
p973
aS'num_4'
p974
aS'num_1'
p975
aS'num_4'
p976
aS'num_1'
p977
aS'num_4'
p978
aS'num_1'
p979
aS'num_4'
p980
asg54
g55
sS'trials_3.thisRepN'
p981
I0
sg48
g49
sg50
g51
sg52
g53
sS'trials_3.thisIndex'
p982
g952
sg24
g25
sg19
I0
sS'trials_3.thisTrialN'
p983
I1
sg31
g11
sa(dp984
g32
g33
sg17
I0
sS'trials_3.thisN'
p985
I1
sg34
g35
sg15
I2
sg46
g47
sg16
F0.050310174487094628
sg20
(lp986
F0.00049107712402474135
aF1.1609018096023647
asg26
g30
sg14
(lp987
g180
asg18
(lp988
S'num_4'
p989
aS'num_0'
p990
asg54
g55
sS'trials_3.thisRepN'
p991
I0
sg48
g49
sg50
g51
sg52
g53
sS'trials_3.thisIndex'
p992
g952
sg24
g25
sg19
I0
sS'trials_3.thisTrialN'
p993
I1
sg31
g11
sa(dp994
g32
g33
sg17
I1
sS'trials_3.thisN'
p995
I1
sg34
g35
sg15
I2
sg46
g47
sg16
F0.058272434162063291
sg20
(lp996
F0.8200639261813194
asg26
g30
sg14
(lp997
g180
asg18
(lp998
S'num_0'
p999
asg54
g55
sS'trials_3.thisRepN'
p1000
I0
sg48
g49
sg50
g51
sg52
g53
sS'trials_3.thisIndex'
p1001
g952
sg24
g25
sg19
I0
sS'trials_3.thisTrialN'
p1002
I1
sg31
g11
sa(dp1003
g32
g33
sg17
I1
sS'trials_3.thisN'
p1004
I1
sg34
g35
sg15
I2
sg46
g47
sg16
F0.056146484574128408
sg20
(lp1005
F2.2210035778480233
asg26
g30
sg14
(lp1006
g894
asg18
(lp1007
S'num_4'
p1008
asg54
g55
sS'trials_3.thisRepN'
p1009
I0
sg48
g49
sg50
g51
sg52
g53
sS'trials_3.thisIndex'
p1010
g952
sg24
g25
sg19
I0
sS'trials_3.thisTrialN'
p1011
I1
sg31
g11
sa(dp1012
g32
g33
sg17
I0
sS'trials_3.thisN'
p1013
I1
sg34
g35
sg15
I2
sg46
g47
sg16
F0.04882627644110471
sg20
(lp1014
F0.0003265642371843569
aF1.4130442720197607
aF2.3608867121583899
aF3.2462249215277552
aF4.2469724090151431
asg26
g30
sg14
(lp1015
g883
asg18
(lp1016
S'num_7'
p1017
aS'num_1'
p1018
aS'num_0'
p1019
aS'num_7'
p1020
aS'num_0'
p1021
aS'num_4'
p1022
aS'num_0'
p1023
aS'num_1'
p1024
asg54
g55
sS'trials_3.thisRepN'
p1025
I0
sg48
g49
sg50
g51
sg52
g53
sS'trials_3.thisIndex'
p1026
g952
sg24
g25
sg19
I0
sS'trials_3.thisTrialN'
p1027
I1
sg31
g11
sa(dp1028
g32
g33
sg17
I1
sS'trials_3.thisN'
p1029
I1
sg34
g35
sg15
I2
sg46
g47
sg16
F0.052729047270986484
sg20
(lp1030
F2.8419240377152164
asg26
g30
sg14
(lp1031
g180
asg18
(lp1032
g285
asg54
g55
sS'trials_3.thisRepN'
p1033
I0
sg48
g49
sg50
g51
sg52
g53
sS'trials_3.thisIndex'
p1034
g952
sg24
g25
sg19
I0
sS'trials_3.thisTrialN'
p1035
I1
sg31
g11
sa(dp1036
g32
g33
sg17
I0
sS'trials_3.thisN'
p1037
I2
sg34
g35
sg15
I3
sg46
g47
sg16
F0.052976431987190153
sg20
(lp1038
F0.27322472747982829
aF0.33991439586316119
asg26
g30
sg14
(lp1039
g872
asg18
(lp1040
S'num_0'
p1041
aS'num_7'
p1042
asg54
g55
sS'trials_3.thisRepN'
p1043
I0
sg48
g49
sg50
g51
sg52
g53
sS'trials_3.thisIndex'
p1044
g27
(g408
S'\x02\x00\x00\x00'
tRp1045
sg24
g25
sg19
I0
sS'trials_3.thisTrialN'
p1046
I2
sg31
g11
sa(dp1047
g32
g33
sg17
I0
sS'trials_3.thisN'
p1048
I2
sg34
g35
sg15
I3
sg46
g47
sg16
F0.052969457628933014
sg20
(lp1049
F0.9412217194767436
aF0.97467239986872301
aF0.99140553493634798
asg26
g30
sg14
(lp1050
g883
asg18
(lp1051
S'num_4'
p1052
aS'num_7'
p1053
aS'num_1'
p1054
asg54
g55
sS'trials_3.thisRepN'
p1055
I0
sg48
g49
sg50
g51
sg52
g53
sS'trials_3.thisIndex'
p1056
g1045
sg24
g25
sg19
I0
sS'trials_3.thisTrialN'
p1057
I2
sg31
g11
sa(dp1058
g32
g33
sg17
I0
sS'trials_3.thisN'
p1059
I2
sg34
g35
sg15
I3
sg46
g47
sg16
F0.056883715646108612
sg20
(lp1060
F0.11981379274584469
aF0.58681665100084501
aF0.63741359483537963
aF0.68756500002928078
aF1.4574758799899428
aF2.520425649407116
aF2.6204613827540015
aF2.636954517725826
aF3.5706989007994707
asg26
g30
sg14
(lp1061
g894
asg18
(lp1062
S'num_7'
p1063
aS'num_0'
p1064
aS'num_7'
p1065
aS'num_1'
p1066
aS'num_7'
p1067
aS'num_4'
p1068
aS'num_1'
p1069
aS'num_0'
p1070
aS'num_7'
p1071
aS'num_4'
p1072
aS'num_0'
p1073
aS'num_1'
p1074
aS'num_4'
p1075
asg54
g55
sS'trials_3.thisRepN'
p1076
I0
sg48
g49
sg50
g51
sg52
g53
sS'trials_3.thisIndex'
p1077
g1045
sg24
g25
sg19
I0
sS'trials_3.thisTrialN'
p1078
I2
sg31
g11
sa(dp1079
g32
g33
sg17
I0
sS'trials_3.thisN'
p1080
I2
sg34
g35
sg15
I3
sg46
g47
sg16
F0.057647203138913028
sg20
(lp1081
F0.00040000016451813281
aF0.77078185468053562
aF0.82079828545465716
aF1.1205461007375561
aF1.4539612118824152
asg26
g30
sg14
(lp1082
g180
asg18
(lp1083
S'num_7'
p1084
aS'num_1'
p1085
aS'num_0'
p1086
aS'num_7'
p1087
aS'num_4'
p1088
aS'num_1'
p1089
aS'num_0'
p1090
asg54
g55
sS'trials_3.thisRepN'
p1091
I0
sg48
g49
sg50
g51
sg52
g53
sS'trials_3.thisIndex'
p1092
g1045
sg24
g25
sg19
I0
sS'trials_3.thisTrialN'
p1093
I2
sg31
g11
sa(dp1094
g32
g33
sg17
I1
sS'trials_3.thisN'
p1095
I2
sg34
g35
sg15
I3
sg46
g47
sg16
F0.060766794162191218
sg20
(lp1096
F0.58200721313187387
asg26
g30
sg14
(lp1097
g180
asg18
(lp1098
S'num_0'
p1099
asg54
g55
sS'trials_3.thisRepN'
p1100
I0
sg48
g49
sg50
g51
sg52
g53
sS'trials_3.thisIndex'
p1101
g1045
sg24
g25
sg19
I0
sS'trials_3.thisTrialN'
p1102
I2
sg31
g11
sa(dp1103
g32
g33
sg17
I0
sS'trials_3.thisN'
p1104
I2
sg34
g35
sg15
I3
sg46
g47
sg16
F0.048320840338419657
sg20
(lp1105
F0.00031753859002492391
aF0.4970020500550163
aF0.66343863115616841
aF1.5476851477687887
aF1.5800010584644042
aF2.2296066583003267
aF2.9465804909050348
asg26
g30
sg14
(lp1106
g894
asg18
(lp1107
S'num_7'
p1108
aS'num_4'
p1109
aS'num_0'
p1110
aS'num_7'
p1111
aS'num_0'
p1112
aS'num_7'
p1113
aS'num_7'
p1114
aS'num_4'
p1115
asg54
g55
sS'trials_3.thisRepN'
p1116
I0
sg48
g49
sg50
g51
sg52
g53
sS'trials_3.thisIndex'
p1117
g1045
sg24
g25
sg19
I0
sS'trials_3.thisTrialN'
p1118
I2
sg31
g11
sa(dp1119
g32
g33
sg17
I0
sS'trials_3.thisN'
p1120
I2
sg34
g35
sg15
I3
sg46
g47
sg16
F0.045446582746080821
sg20
(lp1121
F0.00041558991142665036
aF0.66504273437385564
asg26
g30
sg14
(lp1122
g883
asg18
(lp1123
S'num_7'
p1124
aS'num_1'
p1125
asg54
g55
sS'trials_3.thisRepN'
p1126
I0
sg48
g49
sg50
g51
sg52
g53
sS'trials_3.thisIndex'
p1127
g1045
sg24
g25
sg19
I0
sS'trials_3.thisTrialN'
p1128
I2
sg31
g11
sa(dp1129
g32
g33
sg17
I1
sS'trials_3.thisN'
p1130
I2
sg34
g35
sg15
I3
sg46
g47
sg16
F0.053425662943482166
sg20
(lp1131
F1.307537767195754
asg26
g30
sg14
(lp1132
g180
asg18
(lp1133
g296
asg54
g55
sS'trials_3.thisRepN'
p1134
I0
sg48
g49
sg50
g51
sg52
g53
sS'trials_3.thisIndex'
p1135
g1045
sg24
g25
sg19
I0
sS'trials_3.thisTrialN'
p1136
I2
sg31
g11
sa(dp1137
g32
g33
sg17
I1
sS'trials_3.thisN'
p1138
I3
sg34
g35
sg15
I4
sg46
g47
sg16
F0.055195920078404015
sg20
(lp1139
F3.0702675160064246
asg26
g30
sg14
(lp1140
g872
asg18
(lp1141
S'num_7'
p1142
asg54
g55
sS'trials_3.thisRepN'
p1143
I0
sg48
g49
sg50
g51
sg52
g53
sS'trials_3.thisIndex'
p1144
g27
(g408
S'\x03\x00\x00\x00'
tRp1145
sg24
g25
sg19
I0
sS'trials_3.thisTrialN'
p1146
I3
sg31
g11
sa(dp1147
g32
g33
sg17
I1
sS'trials_3.thisN'
p1148
I3
sg34
g35
sg15
I4
sg46
g47
sg16
F0.052164944478136022
sg20
(lp1149
F2.375843436246214
asg26
g30
sg14
(lp1150
g883
asg18
(lp1151
S'num_1'
p1152
asg54
g55
sS'trials_3.thisRepN'
p1153
I0
sg48
g49
sg50
g51
sg52
g53
sS'trials_3.thisIndex'
p1154
g1145
sg24
g25
sg19
I0
sS'trials_3.thisTrialN'
p1155
I3
sg31
g11
sa(dp1156
g32
g33
sg17
I0
sS'trials_3.thisN'
p1157
I3
sg34
g35
sg15
I4
sg46
g47
sg16
F0.059358383325161412
sg20
(lp1158
F0.00030851294650346972
aF2.3364423944367445
asg26
g30
sg14
(lp1159
g894
asg18
(lp1160
S'num_4'
p1161
aS'num_4'
p1162
asg54
g55
sS'trials_3.thisRepN'
p1163
I0
sg48
g49
sg50
g51
sg52
g53
sS'trials_3.thisIndex'
p1164
g1145
sg24
g25
sg19
I0
sS'trials_3.thisTrialN'
p1165
I3
sg31
g11
sa(dp1166
g32
g33
sg17
I1
sS'trials_3.thisN'
p1167
I3
sg34
g35
sg15
I4
sg46
g47
sg16
F0.058266280313546304
sg20
(lp1168
F0.90308426793126273
asg26
g30
sg14
(lp1169
g180
asg18
(lp1170
S'num_0'
p1171
asg54
g55
sS'trials_3.thisRepN'
p1172
I0
sg48
g49
sg50
g51
sg52
g53
sS'trials_3.thisIndex'
p1173
g1145
sg24
g25
sg19
I0
sS'trials_3.thisTrialN'
p1174
I3
sg31
g11
sa(dp1175
g32
g33
sg17
I1
sS'trials_3.thisN'
p1176
I3
sg34
g35
sg15
I4
sg46
g47
sg16
F0.057736639071663376
sg20
(lp1177
F0.88696610747138038
asg26
g30
sg14
(lp1178
g180
asg18
(lp1179
S'num_0'
p1180
asg54
g55
sS'trials_3.thisRepN'
p1181
I0
sg48
g49
sg50
g51
sg52
g53
sS'trials_3.thisIndex'
p1182
g1145
sg24
g25
sg19
I0
sS'trials_3.thisTrialN'
p1183
I3
sg31
g11
sa(dp1184
g32
g33
sg17
I1
sS'trials_3.thisN'
p1185
I3
sg34
g35
sg15
I4
sg46
g47
sg16
F0.052453354852332268
sg20
(lp1186
F2.0247433947661193
asg26
g30
sg14
(lp1187
g894
asg18
(lp1188
S'num_4'
p1189
asg54
g55
sS'trials_3.thisRepN'
p1190
I0
sg48
g49
sg50
g51
sg52
g53
sS'trials_3.thisIndex'
p1191
g1145
sg24
g25
sg19
I0
sS'trials_3.thisTrialN'
p1192
I3
sg31
g11
sa(dp1193
g32
g33
sg17
I0
sS'trials_3.thisN'
p1194
I3
sg34
g35
sg15
I4
sg46
g47
sg16
F0.051014995286095655
sg20
(lp1195
F0.0003265642371843569
aF0.59330691007562564
aF0.6598554501979379
aF1.5775579805376765
aF1.9768057340734231
aF2.9768492212715501
asg26
g30
sg14
(lp1196
g883
asg18
(lp1197
S'num_7'
p1198
aS'num_4'
p1199
aS'num_7'
p1200
aS'num_4'
p1201
aS'num_0'
p1202
aS'num_1'
p1203
asg54
g55
sS'trials_3.thisRepN'
p1204
I0
sg48
g49
sg50
g51
sg52
g53
sS'trials_3.thisIndex'
p1205
g1145
sg24
g25
sg19
I0
sS'trials_3.thisTrialN'
p1206
I3
sg31
g11
sa(dp1207
g32
g33
sg17
I0
sS'trials_3.thisN'
p1208
I3
sg34
g35
sg15
I4
sg46
g47
sg16
F0.058629767645470565
sg20
(lp1209
F0.568343207527505
aF1.168388171648985
aF1.9346182295885228
asg26
g30
sg14
(lp1210
g180
asg18
(lp1211
g307
ag308
ag309
ag310
asg54
g55
sS'trials_3.thisRepN'
p1212
I0
sg48
g49
sg50
g51
sg52
g53
sS'trials_3.thisIndex'
p1213
g1145
sg24
g25
sg19
I0
sS'trials_3.thisTrialN'
p1214
I3
sg31
g11
sa(dp1215
g32
g33
sg17
I0
sS'trials_3.thisN'
p1216
I4
sg34
g35
sg15
I5
sg46
g47
sg16
F0.05746012613599305
sg20
(lp1217
F0.00030153858460835181
aF0.13505400412395829
aF0.26845836654683808
asg26
g30
sg14
(lp1218
g872
asg18
(lp1219
S'num_4'
p1220
aS'num_1'
p1221
aS'num_0'
p1222
aS'num_0'
p1223
aS'num_7'
p1224
asg54
g55
sS'trials_3.thisRepN'
p1225
I0
sg48
g49
sg50
g51
sg52
g53
sS'trials_3.thisIndex'
p1226
g27
(g408
S'\x04\x00\x00\x00'
tRp1227
sg24
g25
sg19
I0
sS'trials_3.thisTrialN'
p1228
I4
sg31
g11
sa(dp1229
g32
g33
sg17
I0
sS'trials_3.thisN'
p1230
I4
sg34
g35
sg15
I5
sg46
g47
sg16
F0.053610688661137829
sg20
(lp1231
F0.54139222210869775
aF0.55743489535598201
aF0.57439736385640572
asg26
g30
sg14
(lp1232
g883
asg18
(lp1233
S'num_7'
p1234
aS'num_4'
p1235
aS'num_1'
p1236
asg54
g55
sS'trials_3.thisRepN'
p1237
I0
sg48
g49
sg50
g51
sg52
g53
sS'trials_3.thisIndex'
p1238
g1227
sg24
g25
sg19
I0
sS'trials_3.thisTrialN'
p1239
I4
sg31
g11
sa(dp1240
g32
g33
sg17
I0
sS'trials_3.thisN'
p1241
I4
sg34
g35
sg15
I5
sg46
g47
sg16
F0.054813971204566769
sg20
(lp1242
F0.00055589766270713881
aF0.4752067590598017
aF1.0739044405781897
aF1.9565743411585572
aF1.9725690143859538
aF2.005881438311917
asg26
g30
sg14
(lp1243
g894
asg18
(lp1244
S'num_0'
p1245
aS'num_7'
p1246
aS'num_4'
p1247
aS'num_1'
p1248
aS'num_0'
p1249
aS'num_7'
p1250
aS'num_4'
p1251
aS'num_1'
p1252
aS'num_0'
p1253
aS'num_7'
p1254
aS'num_0'
p1255
aS'num_1'
p1256
aS'num_4'
p1257
asg54
g55
sS'trials_3.thisRepN'
p1258
I0
sg48
g49
sg50
g51
sg52
g53
sS'trials_3.thisIndex'
p1259
g1227
sg24
g25
sg19
I0
sS'trials_3.thisTrialN'
p1260
I4
sg31
g11
sa(dp1261
g32
g33
sg17
I1
sS'trials_3.thisN'
p1262
I4
sg34
g35
sg15
I5
sg46
g47
sg16
F0.06939366949518444
sg20
(lp1263
F0.52334462496219203
asg26
g30
sg14
(lp1264
g180
asg18
(lp1265
S'num_0'
p1266
asg54
g55
sS'trials_3.thisRepN'
p1267
I0
sg48
g49
sg50
g51
sg52
g53
sS'trials_3.thisIndex'
p1268
g1227
sg24
g25
sg19
I0
sS'trials_3.thisTrialN'
p1269
I4
sg31
g11
sa(dp1270
g32
g33
sg17
I0
sS'trials_3.thisN'
p1271
I4
sg34
g35
sg15
I5
sg46
g47
sg16
F0.057277972216979833
sg20
(lp1272
F0.00036512835504254326
aF0.82092546499552554
aF0.83706413828258519
asg26
g30
sg14
(lp1273
g180
asg18
(lp1274
S'num_7'
p1275
aS'num_4'
p1276
aS'num_1'
p1277
aS'num_7'
p1278
aS'num_4'
p1279
aS'num_1'
p1280
aS'num_0'
p1281
asg54
g55
sS'trials_3.thisRepN'
p1282
I0
sg48
g49
sg50
g51
sg52
g53
sS'trials_3.thisIndex'
p1283
g1227
sg24
g25
sg19
I0
sS'trials_3.thisTrialN'
p1284
I4
sg31
g11
sa(dp1285
g32
g33
sg17
I0
sS'trials_3.thisN'
p1286
I4
sg34
g35
sg15
I5
sg46
g47
sg16
F0.055907715242938139
sg20
(lp1287
F0.53791981042741099
aF0.60436086332629202
aF0.62066076745031751
aF1.6720626346941572
aF1.7215875780893839
aF1.7541914889006875
aF2.7870870921397
aF2.8555498894565972
aF3.7701783672528109
aF3.823292235196277
aF4.1884550516733725
aF4.2207639880070928
aF4.5208305726482649
aF4.7700926236284431
aF5.4053281662891095
aF5.5546307916447404
aF6.5041015401438926
asg26
g30
sg14
(lp1288
g894
asg18
(lp1289
S'num_7'
p1290
aS'num_4'
p1291
aS'num_0'
p1292
aS'num_1'
p1293
aS'num_0'
p1294
aS'num_7'
p1295
aS'num_4'
p1296
aS'num_1'
p1297
aS'num_7'
p1298
aS'num_4'
p1299
aS'num_1'
p1300
aS'num_0'
p1301
aS'num_7'
p1302
aS'num_4'
p1303
aS'num_1'
p1304
aS'num_0'
p1305
aS'num_7'
p1306
aS'num_4'
p1307
aS'num_1'
p1308
aS'num_0'
p1309
aS'num_7'
p1310
aS'num_7'
p1311
aS'num_7'
p1312
aS'num_4'
p1313
aS'num_1'
p1314
aS'num_0'
p1315
aS'num_4'
p1316
asg54
g55
sS'trials_3.thisRepN'
p1317
I0
sg48
g49
sg50
g51
sg52
g53
sS'trials_3.thisIndex'
p1318
g1227
sg24
g25
sg19
I0
sS'trials_3.thisTrialN'
p1319
I4
sg31
g11
sa(dp1320
g32
g33
sg17
I0
sS'trials_3.thisN'
p1321
I4
sg34
g35
sg15
I5
sg46
g47
sg16
F0.051978687992232153
sg20
(lp1322
F0.00032123089840752073
aF0.12566405155303073
aF0.44226151477414533
asg26
g30
sg14
(lp1323
g883
asg18
(lp1324
S'num_1'
p1325
aS'num_0'
p1326
aS'num_1'
p1327
asg54
g55
sS'trials_3.thisRepN'
p1328
I0
sg48
g49
sg50
g51
sg52
g53
sS'trials_3.thisIndex'
p1329
g1227
sg24
g25
sg19
I0
sS'trials_3.thisTrialN'
p1330
I4
sg31
g11
sa(dp1331
g32
g33
sg17
I0
sS'trials_3.thisN'
p1332
I4
sg34
g35
sg15
I5
sg46
g47
sg16
F0.055122484151070239
sg20
(lp1333
F0.00060512845448101871
aF0.088959626238647616
aF0.33920793403376592
aF0.35559768434541184
asg26
g30
sg14
(lp1334
g180
asg18
(lp1335
g321
ag322
ag323
ag324
ag325
ag326
asg54
g55
sS'trials_3.thisRepN'
p1336
I0
sg48
g49
sg50
g51
sg52
g53
sS'trials_3.thisIndex'
p1337
g1227
sg24
g25
sg19
I0
sS'trials_3.thisTrialN'
p1338
I4
sg31
g11
sa(dp1339
g32
g33
sg17
I0
sS'trials_3.thisN'
p1340
I5
sg34
g35
sg15
I6
sg46
g47
sg16
F0.054845971219037892
sg20
(lp1341
F0.00027651293567032553
aF0.32053264432033757
asg26
g30
sg14
(lp1342
g872
asg18
(lp1343
S'num_4'
p1344
aS'num_1'
p1345
aS'num_7'
p1346
aS'num_4'
p1347
aS'num_0'
p1348
aS'num_1'
p1349
aS'num_0'
p1350
aS'num_7'
p1351
asg54
g55
sS'trials_3.thisRepN'
p1352
I0
sg48
g49
sg50
g51
sg52
g53
sS'trials_3.thisIndex'
p1353
g27
(g408
S'\x05\x00\x00\x00'
tRp1354
sg24
g25
sg19
I0
sS'trials_3.thisTrialN'
p1355
I5
sg31
g11
sa(dp1356
g32
g33
sg17
I0
sS'trials_3.thisN'
p1357
I5
sg34
g35
sg15
I6
sg46
g47
sg16
F0.049598379322560504
sg20
(lp1358
F0.00026338472162024118
aF8.1629957591758284
aF9.228947786232311
asg26
g30
sg14
(lp1359
g883
asg18
(lp1360
S'num_1'
p1361
aS'num_4'
p1362
aS'num_1'
p1363
asg54
g55
sS'trials_3.thisRepN'
p1364
I0
sg48
g49
sg50
g51
sg52
g53
sS'trials_3.thisIndex'
p1365
g1354
sg24
g25
sg19
I0
sS'trials_3.thisTrialN'
p1366
I5
sg31
g11
sa(dp1367
g32
g33
sg17
I0
sS'trials_3.thisN'
p1368
I5
sg34
g35
sg15
I6
sg46
g47
sg16
F0.060141152876894921
sg20
(lp1369
F0.00030153858460835181
aF4.6511625235543761
aF5.5172900583747833
asg26
g30
sg14
(lp1370
g894
asg18
(lp1371
S'num_4'
p1372
aS'num_7'
p1373
aS'num_4'
p1374
asg54
g55
sS'trials_3.thisRepN'
p1375
I0
sg48
g49
sg50
g51
sg52
g53
sS'trials_3.thisIndex'
p1376
g1354
sg24
g25
sg19
I0
sS'trials_3.thisTrialN'
p1377
I5
sg31
g11
sa(dp1378
g32
g33
sg17
I0
sS'trials_3.thisN'
p1379
I5
sg34
g35
sg15
I6
sg46
g47
sg16
F0.054944022540439619
sg20
(lp1380
F0.00059158998556085862
aF0.089435523870633915
aF3.5223645219957689
asg26
g30
sg14
(lp1381
g180
asg18
(lp1382
S'num_4'
p1383
aS'num_4'
p1384
aS'num_0'
p1385
asg54
g55
sS'trials_3.thisRepN'
p1386
I0
sg48
g49
sg50
g51
sg52
g53
sS'trials_3.thisIndex'
p1387
g1354
sg24
g25
sg19
I0
sS'trials_3.thisTrialN'
p1388
I5
sg31
g11
sa(dp1389
g32
g33
sg17
I0
sS'trials_3.thisN'
p1390
I5
sg34
g35
sg15
I6
sg46
g47
sg16
F0.052653560062026372
sg20
(lp1391
F0.00029989755785209127
aF0.039638990623643622
aF0.85810373666026862
asg26
g30
sg14
(lp1392
g180
asg18
(lp1393
S'num_0'
p1394
aS'num_1'
p1395
aS'num_0'
p1396
asg54
g55
sS'trials_3.thisRepN'
p1397
I0
sg48
g49
sg50
g51
sg52
g53
sS'trials_3.thisIndex'
p1398
g1354
sg24
g25
sg19
I0
sS'trials_3.thisTrialN'
p1399
I5
sg31
g11
sa(dp1400
g32
g33
sg17
I1
sS'trials_3.thisN'
p1401
I5
sg34
g35
sg15
I6
sg46
g47
sg16
F0.059160639655601699
sg20
(lp1402
F20.616616868355777
asg26
g30
sg14
(lp1403
g894
asg18
(lp1404
S'num_4'
p1405
asg54
g55
sS'trials_3.thisRepN'
p1406
I0
sg48
g49
sg50
g51
sg52
g53
sS'trials_3.thisIndex'
p1407
g1354
sg24
g25
sg19
I0
sS'trials_3.thisTrialN'
p1408
I5
sg31
g11
sa(dp1409
g32
g33
sg17
I0
sS'trials_3.thisN'
p1410
I5
sg34
g35
sg15
I6
sg46
g47
sg16
F0.054127611947478727
sg20
(lp1411
F0.00026748728851089254
aF1.7736442148270726
asg26
g30
sg14
(lp1412
g883
asg18
(lp1413
S'num_4'
p1414
aS'num_1'
p1415
asg54
g55
sS'trials_3.thisRepN'
p1416
I0
sg48
g49
sg50
g51
sg52
g53
sS'trials_3.thisIndex'
p1417
g1354
sg24
g25
sg19
I0
sS'trials_3.thisTrialN'
p1418
I5
sg31
g11
sa(dp1419
g32
g33
sg17
I1
sS'trials_3.thisN'
p1420
I5
sg34
g35
sg15
I6
sg46
g47
sg16
F0.051284944118378917
sg20
(lp1421
F0.75977097836585017
asg26
g30
sg14
(lp1422
g180
asg18
(lp1423
g337
asg54
g55
sS'trials_3.thisRepN'
p1424
I0
sg48
g49
sg50
g51
sg52
g53
sS'trials_3.thisIndex'
p1425
g1354
sg24
g25
sg19
I0
sS'trials_3.thisTrialN'
p1426
I5
sg31
g11
sa(dp1427
g32
g33
sg17
I1
sS'trials_3.thisN'
p1428
I6
sg34
g35
sg15
I7
sg46
g47
sg16
F0.063510179901641095
sg20
(lp1429
F0.99593804961477872
asg26
g30
sg14
(lp1430
g872
asg18
(lp1431
S'num_7'
p1432
asg54
g55
sS'trials_3.thisRepN'
p1433
I0
sg48
g49
sg50
g51
sg52
g53
sS'trials_3.thisIndex'
p1434
g27
(g408
S'\x06\x00\x00\x00'
tRp1435
sg24
g25
sg19
I0
sS'trials_3.thisTrialN'
p1436
I6
sg31
g11
sa(dp1437
g32
g33
sg17
I1
sS'trials_3.thisN'
p1438
I6
sg34
g35
sg15
I7
sg46
g47
sg16
F0.061426486739946995
sg20
(lp1439
F2.6156765602790983
asg26
g30
sg14
(lp1440
g883
asg18
(lp1441
S'num_1'
p1442
asg54
g55
sS'trials_3.thisRepN'
p1443
I0
sg48
g49
sg50
g51
sg52
g53
sS'trials_3.thisIndex'
p1444
g1435
sg24
g25
sg19
I0
sS'trials_3.thisTrialN'
p1445
I6
sg31
g11
sa(dp1446
g32
g33
sg17
I1
sS'trials_3.thisN'
p1447
I6
sg34
g35
sg15
I7
sg46
g47
sg16
F0.054999817435600562
sg20
(lp1448
F5.4379706412182713
asg26
g30
sg14
(lp1449
g894
asg18
(lp1450
S'num_4'
p1451
asg54
g55
sS'trials_3.thisRepN'
p1452
I0
sg48
g49
sg50
g51
sg52
g53
sS'trials_3.thisIndex'
p1453
g1435
sg24
g25
sg19
I0
sS'trials_3.thisTrialN'
p1454
I6
sg31
g11
sa(dp1455
g32
g33
sg17
I1
sS'trials_3.thisN'
p1456
I6
sg34
g35
sg15
I7
sg46
g47
sg16
F0.053673868173063966
sg20
(lp1457
F1.6741992509560077
asg26
g30
sg14
(lp1458
g180
asg18
(lp1459
S'num_0'
p1460
asg54
g55
sS'trials_3.thisRepN'
p1461
I0
sg48
g49
sg50
g51
sg52
g53
sS'trials_3.thisIndex'
p1462
g1435
sg24
g25
sg19
I0
sS'trials_3.thisTrialN'
p1463
I6
sg31
g11
sa(dp1464
g32
g33
sg17
I1
sS'trials_3.thisN'
p1465
I6
sg34
g35
sg15
I7
sg46
g47
sg16
F0.05708022854742012
sg20
(lp1466
F1.137821184747736
asg26
g30
sg14
(lp1467
g180
asg18
(lp1468
S'num_0'
p1469
asg54
g55
sS'trials_3.thisRepN'
p1470
I0
sg48
g49
sg50
g51
sg52
g53
sS'trials_3.thisIndex'
p1471
g1435
sg24
g25
sg19
I0
sS'trials_3.thisTrialN'
p1472
I6
sg31
g11
sa(dp1473
g32
g33
sg17
I1
sS'trials_3.thisN'
p1474
I6
sg34
g35
sg15
I7
sg46
g47
sg16
F0.049567199821467511
sg20
(lp1475
F3.029874473795644
asg26
g30
sg14
(lp1476
g894
asg18
(lp1477
S'num_4'
p1478
asg54
g55
sS'trials_3.thisRepN'
p1479
I0
sg48
g49
sg50
g51
sg52
g53
sS'trials_3.thisIndex'
p1480
g1435
sg24
g25
sg19
I0
sS'trials_3.thisTrialN'
p1481
I6
sg31
g11
sa(dp1482
g32
g33
sg17
I1
sS'trials_3.thisN'
p1483
I6
sg34
g35
sg15
I7
sg46
g47
sg16
F0.048067301770061022
sg20
(lp1484
F23.278291806480411
asg26
g30
sg14
(lp1485
g883
asg18
(lp1486
S'num_1'
p1487
asg54
g55
sS'trials_3.thisRepN'
p1488
I0
sg48
g49
sg50
g51
sg52
g53
sS'trials_3.thisIndex'
p1489
g1435
sg24
g25
sg19
I0
sS'trials_3.thisTrialN'
p1490
I6
sg31
g11
sa(dp1491
g32
g33
sg17
I1
sS'trials_3.thisN'
p1492
I6
sg34
g35
sg15
I7
sg46
g47
sg16
F0.053242278252582764
sg20
(lp1493
F1.8412458835882717
asg26
g30
sg14
(lp1494
g180
asg18
(lp1495
g348
asg54
g55
sS'trials_3.thisRepN'
p1496
I0
sg48
g49
sg50
g51
sg52
g53
sS'trials_3.thisIndex'
p1497
g1435
sg24
g25
sg19
I0
sS'trials_3.thisTrialN'
p1498
I6
sg31
g11
sa(dp1499
g32
g33
sg17
I1
sS'trials_3.thisN'
p1500
I7
sg34
g35
sg15
I8
sg46
g47
sg16
F0.058625254820071859
sg20
(lp1501
F1.9343109474066296
asg26
g30
sg14
(lp1502
g872
asg18
(lp1503
S'num_7'
p1504
asg54
g55
sS'trials_3.thisRepN'
p1505
I0
sg48
g49
sg50
g51
sg52
g53
sS'trials_3.thisIndex'
p1506
g27
(g408
S'\x07\x00\x00\x00'
tRp1507
sg24
g25
sg19
I0
sS'trials_3.thisTrialN'
p1508
I7
sg31
g11
sa(dp1509
g32
g33
sg17
I1
sS'trials_3.thisN'
p1510
I7
sg34
g35
sg15
I8
sg46
g47
sg16
F0.055390381698089186
sg20
(lp1511
F1.9216524806797679
asg26
g30
sg14
(lp1512
g883
asg18
(lp1513
S'num_1'
p1514
asg54
g55
sS'trials_3.thisRepN'
p1515
I0
sg48
g49
sg50
g51
sg52
g53
sS'trials_3.thisIndex'
p1516
g1507
sg24
g25
sg19
I0
sS'trials_3.thisTrialN'
p1517
I7
sg31
g11
sa(dp1518
g32
g33
sg17
I1
sS'trials_3.thisN'
p1519
I7
sg34
g35
sg15
I8
sg46
g47
sg16
F0.051178687663195888
sg20
(lp1520
F1.5771522367795114
asg26
g30
sg14
(lp1521
g894
asg18
(lp1522
S'num_4'
p1523
asg54
g55
sS'trials_3.thisRepN'
p1524
I0
sg48
g49
sg50
g51
sg52
g53
sS'trials_3.thisIndex'
p1525
g1507
sg24
g25
sg19
I0
sS'trials_3.thisTrialN'
p1526
I7
sg31
g11
sa(dp1527
g32
g33
sg17
I1
sS'trials_3.thisN'
p1528
I7
sg34
g35
sg15
I8
sg46
g47
sg16
F0.056351612860453315
sg20
(lp1529
F0.80486227891742601
asg26
g30
sg14
(lp1530
g180
asg18
(lp1531
S'num_0'
p1532
asg54
g55
sS'trials_3.thisRepN'
p1533
I0
sg48
g49
sg50
g51
sg52
g53
sS'trials_3.thisIndex'
p1534
g1507
sg24
g25
sg19
I0
sS'trials_3.thisTrialN'
p1535
I7
sg31
g11
sa(dp1536
g32
g33
sg17
I0
sS'trials_3.thisN'
p1537
I7
sg34
g35
sg15
I8
sg46
g47
sg16
F0.056695407874940429
sg20
(lp1538
F0.00041230786155210808
aF0.88768118468942703
asg26
g30
sg14
(lp1539
g180
asg18
(lp1540
S'num_1'
p1541
aS'num_0'
p1542
asg54
g55
sS'trials_3.thisRepN'
p1543
I0
sg48
g49
sg50
g51
sg52
g53
sS'trials_3.thisIndex'
p1544
g1507
sg24
g25
sg19
I0
sS'trials_3.thisTrialN'
p1545
I7
sg31
g11
sa(dp1546
g32
g33
sg17
I1
sS'trials_3.thisN'
p1547
I7
sg34
g35
sg15
I8
sg46
g47
sg16
F0.0495528408428072
sg20
(lp1548
F2.3783931808793568
asg26
g30
sg14
(lp1549
g894
asg18
(lp1550
S'num_4'
p1551
asg54
g55
sS'trials_3.thisRepN'
p1552
I0
sg48
g49
sg50
g51
sg52
g53
sS'trials_3.thisIndex'
p1553
g1507
sg24
g25
sg19
I0
sS'trials_3.thisTrialN'
p1554
I7
sg31
g11
sa(dp1555
g32
g33
sg17
I1
sS'trials_3.thisN'
p1556
I7
sg34
g35
sg15
I8
sg46
g47
sg16
F0.050411918116878951
sg20
(lp1557
F1.6442111360884155
asg26
g30
sg14
(lp1558
g883
asg18
(lp1559
S'num_1'
p1560
asg54
g55
sS'trials_3.thisRepN'
p1561
I0
sg48
g49
sg50
g51
sg52
g53
sS'trials_3.thisIndex'
p1562
g1507
sg24
g25
sg19
I0
sS'trials_3.thisTrialN'
p1563
I7
sg31
g11
sa(dp1564
g32
g33
sg17
I1
sS'trials_3.thisN'
p1565
I7
sg34
g35
sg15
I8
sg46
g47
sg16
F0.058938690846844111
sg20
(lp1566
F1.4526467498035345
asg26
g30
sg14
(lp1567
g180
asg18
(lp1568
g359
asg54
g55
sS'trials_3.thisRepN'
p1569
I0
sg48
g49
sg50
g51
sg52
g53
sS'trials_3.thisIndex'
p1570
g1507
sg24
g25
sg19
I0
sS'trials_3.thisTrialN'
p1571
I7
sg31
g11
sa(dp1572
g32
g33
sg17
I1
sS'trials_3.thisN'
p1573
I8
sg34
g35
sg15
I9
sg46
g47
sg16
F0.042001658257504459
sg20
(lp1574
F1.5530422781703237
asg26
g30
sg14
(lp1575
g872
asg18
(lp1576
S'num_7'
p1577
asg54
g55
sS'trials_3.thisRepN'
p1578
I0
sg48
g49
sg50
g51
sg52
g53
sS'trials_3.thisIndex'
p1579
g27
(g408
S'\x08\x00\x00\x00'
tRp1580
sg24
g25
sg19
I0
sS'trials_3.thisTrialN'
p1581
I8
sg31
g11
sa(dp1582
g32
g33
sg17
I0
sS'trials_3.thisN'
p1583
I8
sg34
g35
sg15
I9
sg46
g47
sg16
F0.054176842739252606
sg20
(lp1584
F2.4062816025762004
aF3.3569429156668775
asg26
g30
sg14
(lp1585
g883
asg18
(lp1586
S'num_0'
p1587
aS'num_1'
p1588
asg54
g55
sS'trials_3.thisRepN'
p1589
I0
sg48
g49
sg50
g51
sg52
g53
sS'trials_3.thisIndex'
p1590
g1580
sg24
g25
sg19
I0
sS'trials_3.thisTrialN'
p1591
I8
sg31
g11
sa(dp1592
g32
g33
sg17
I1
sS'trials_3.thisN'
p1593
I8
sg34
g35
sg15
I9
sg46
g47
sg16
F0.058661357401433634
sg20
(lp1594
F0.80306699612992816
asg26
g30
sg14
(lp1595
g894
asg18
(lp1596
S'num_4'
p1597
asg54
g55
sS'trials_3.thisRepN'
p1598
I0
sg48
g49
sg50
g51
sg52
g53
sS'trials_3.thisIndex'
p1599
g1580
sg24
g25
sg19
I0
sS'trials_3.thisTrialN'
p1600
I8
sg31
g11
sa(dp1601
g32
g33
sg17
I0
sS'trials_3.thisN'
p1602
I8
sg34
g35
sg15
I9
sg46
g47
sg16
F0.044305248946329812
sg20
(lp1603
F0.00028061549892299809
aF0.65374180666549364
aF0.66785955604427727
aF0.70102510811193497
aF1.3672826122201513
aF1.3840641575661721
aF1.4507316720955714
aF2.0367298612218292
aF2.5668806428220705
aF2.9838539420961752
aF3.7005307489380357
aF4.0166986735166574
asg26
g30
sg14
(lp1604
g180
asg18
(lp1605
S'num_7'
p1606
aS'num_1'
p1607
aS'num_0'
p1608
aS'num_4'
p1609
aS'num_0'
p1610
aS'num_7'
p1611
aS'num_1'
p1612
aS'num_1'
p1613
aS'num_4'
p1614
aS'num_0'
p1615
aS'num_7'
p1616
aS'num_7'
p1617
aS'num_4'
p1618
aS'num_4'
p1619
aS'num_1'
p1620
aS'num_1'
p1621
aS'num_0'
p1622
asg54
g55
sS'trials_3.thisRepN'
p1623
I0
sg48
g49
sg50
g51
sg52
g53
sS'trials_3.thisIndex'
p1624
g1580
sg24
g25
sg19
I0
sS'trials_3.thisTrialN'
p1625
I8
sg31
g11
sa(dp1626
g32
g33
sg17
I0
sS'trials_3.thisN'
p1627
I8
sg34
g35
sg15
I9
sg46
g47
sg16
F0.058482895790803013
sg20
(lp1628
F0.033994680612522643
aF0.56946731054995325
asg26
g30
sg14
(lp1629
g180
asg18
(lp1630
S'num_0'
p1631
aS'num_0'
p1632
asg54
g55
sS'trials_3.thisRepN'
p1633
I0
sg48
g49
sg50
g51
sg52
g53
sS'trials_3.thisIndex'
p1634
g1580
sg24
g25
sg19
I0
sS'trials_3.thisTrialN'
p1635
I8
sg31
g11
sa(dp1636
g32
g33
sg17
I1
sS'trials_3.thisN'
p1637
I8
sg34
g35
sg15
I9
sg46
g47
sg16
F0.055659099758486263
sg20
(lp1638
F1.2370072767189413
asg26
g30
sg14
(lp1639
g894
asg18
(lp1640
S'num_4'
p1641
asg54
g55
sS'trials_3.thisRepN'
p1642
I0
sg48
g49
sg50
g51
sg52
g53
sS'trials_3.thisIndex'
p1643
g1580
sg24
g25
sg19
I0
sS'trials_3.thisTrialN'
p1644
I8
sg31
g11
sa(dp1645
g32
g33
sg17
I0
sS'trials_3.thisN'
p1646
I8
sg34
g35
sg15
I9
sg46
g47
sg16
F0.062399205085966969
sg20
(lp1647
F0.00034707706436165608
aF2.6981110556371277
aF2.7148515753251559
aF3.365359329378407
asg26
g30
sg14
(lp1648
g883
asg18
(lp1649
S'num_7'
p1650
aS'num_4'
p1651
aS'num_7'
p1652
aS'num_1'
p1653
asg54
g55
sS'trials_3.thisRepN'
p1654
I0
sg48
g49
sg50
g51
sg52
g53
sS'trials_3.thisIndex'
p1655
g1580
sg24
g25
sg19
I0
sS'trials_3.thisTrialN'
p1656
I8
sg31
g11
sa(dp1657
g32
g33
sg17
I0
sS'trials_3.thisN'
p1658
I8
sg34
g35
sg15
I9
sg46
g47
sg16
F0.055307099610217847
sg20
(lp1659
F0.93944079566790606
aF1.7894169392493495
asg26
g30
sg14
(lp1660
g180
asg18
(lp1661
g370
ag371
asg54
g55
sS'trials_3.thisRepN'
p1662
I0
sg48
g49
sg50
g51
sg52
g53
sS'trials_3.thisIndex'
p1663
g1580
sg24
g25
sg19
I0
sS'trials_3.thisTrialN'
p1664
I8
sg31
g11
sa(dp1665
g32
g33
sg17
I0
sS'trials_3.thisN'
p1666
I9
sg34
g35
sg15
I10
sg46
g47
sg16
F0.054082073471363401
sg20
(lp1667
F0.036564527821610682
aF0.4384399747432326
aF0.80515315083175665
aF1.1723040706892789
aF1.5887054722879839
aF1.6383908260067983
asg26
g30
sg14
(lp1668
g872
asg18
(lp1669
S'num_0'
p1670
aS'num_0'
p1671
aS'num_0'
p1672
aS'num_0'
p1673
aS'num_4'
p1674
aS'num_7'
p1675
asg54
g55
sS'trials_3.thisRepN'
p1676
I0
sg48
g49
sg50
g51
sg52
g53
sS'trials_3.thisIndex'
p1677
g434
sg24
g25
sg19
I0
sS'trials_3.thisTrialN'
p1678
I9
sg31
g11
sa(dp1679
g32
g33
sg17
I0
sS'trials_3.thisN'
p1680
I9
sg34
g35
sg15
I10
sg46
g47
sg16
F0.058350793169665849
sg20
(lp1681
F0.00028143601593910716
aF0.085655830011091894
aF0.31913448990235338
aF0.48526337857038015
aF0.58614834303443786
aF0.78644339956736076
aF0.93590028139442438
aF1.0705288494464185
aF1.4701848082804645
aF2.2196087054799136
aF2.2371898409001005
aF3.0690740796198952
aF4.236101430196868
aF4.6857479736390815
aF5.1359200557635631
asg26
g30
sg14
(lp1682
g883
asg18
(lp1683
S'num_7'
p1684
aS'num_7'
p1685
aS'num_4'
p1686
aS'num_7'
p1687
aS'num_4'
p1688
aS'num_7'
p1689
aS'num_4'
p1690
aS'num_7'
p1691
aS'num_4'
p1692
aS'num_4'
p1693
aS'num_7'
p1694
aS'num_0'
p1695
aS'num_7'
p1696
aS'num_4'
p1697
aS'num_1'
p1698
asg54
g55
sS'trials_3.thisRepN'
p1699
I0
sg48
g49
sg50
g51
sg52
g53
sS'trials_3.thisIndex'
p1700
g434
sg24
g25
sg19
I0
sS'trials_3.thisTrialN'
p1701
I9
sg31
g11
sa(dp1702
g32
g33
sg17
I1
sS'trials_3.thisN'
p1703
I9
sg34
g35
sg15
I10
sg46
g47
sg16
F0.049872020459588384
sg20
(lp1704
F1.5441790950462746
asg26
g30
sg14
(lp1705
g894
asg18
(lp1706
S'num_4'
p1707
asg54
g55
sS'trials_3.thisRepN'
p1708
I0
sg48
g49
sg50
g51
sg52
g53
sS'trials_3.thisIndex'
p1709
g434
sg24
g25
sg19
I0
sS'trials_3.thisTrialN'
p1710
I9
sg31
g11
sa(dp1711
g32
g33
sg17
I0
sS'trials_3.thisN'
p1712
I9
sg34
g35
sg15
I10
sg46
g47
sg16
F0.057911818632419454
sg20
(lp1713
F0.00029292319595697336
aF0.26853918709457503
aF0.90241513945147744
asg26
g30
sg14
(lp1714
g180
asg18
(lp1715
S'num_4'
p1716
aS'num_4'
p1717
aS'num_0'
p1718
asg54
g55
sS'trials_3.thisRepN'
p1719
I0
sg48
g49
sg50
g51
sg52
g53
sS'trials_3.thisIndex'
p1720
g434
sg24
g25
sg19
I0
sS'trials_3.thisTrialN'
p1721
I9
sg31
g11
sa(dp1722
g32
g33
sg17
I0
sS'trials_3.thisN'
p1723
I9
sg34
g35
sg15
I10
sg46
g47
sg16
F0.052817252435488626
sg20
(lp1724
F0.00056779510123305954
aF0.60738035174654215
aF0.87390764057636261
aF0.94109002711411449
aF2.5903702934847388
aF3.1411553399593686
aF3.890911955244519
asg26
g30
sg14
(lp1725
g180
asg18
(lp1726
S'num_0'
p1727
aS'num_4'
p1728
aS'num_4'
p1729
aS'num_1'
p1730
aS'num_1'
p1731
aS'num_1'
p1732
aS'num_0'
p1733
asg54
g55
sS'trials_3.thisRepN'
p1734
I0
sg48
g49
sg50
g51
sg52
g53
sS'trials_3.thisIndex'
p1735
g434
sg24
g25
sg19
I0
sS'trials_3.thisTrialN'
p1736
I9
sg31
g11
sa(dp1737
g32
g33
sg17
I0
sS'trials_3.thisN'
p1738
I9
sg34
g35
sg15
I10
sg46
g47
sg16
F0.056723715577390976
sg20
(lp1739
F0.00046769249820499681
aF2.0548299712099833
aF2.0874638307541318
asg26
g30
sg14
(lp1740
g894
asg18
(lp1741
S'num_0'
p1742
aS'num_7'
p1743
aS'num_0'
p1744
aS'num_4'
p1745
asg54
g55
sS'trials_3.thisRepN'
p1746
I0
sg48
g49
sg50
g51
sg52
g53
sS'trials_3.thisIndex'
p1747
g434
sg24
g25
sg19
I0
sS'trials_3.thisTrialN'
p1748
I9
sg31
g11
sa(dp1749
g32
g33
sg17
I0
sS'trials_3.thisN'
p1750
I9
sg34
g35
sg15
I10
sg46
g47
sg16
F0.056020946060016286
sg20
(lp1751
F0.00049887199929798953
aF2.9884233798693458
asg26
g30
sg14
(lp1752
g883
asg18
(lp1753
S'num_1'
p1754
aS'num_1'
p1755
asg54
g55
sS'trials_3.thisRepN'
p1756
I0
sg48
g49
sg50
g51
sg52
g53
sS'trials_3.thisIndex'
p1757
g434
sg24
g25
sg19
I0
sS'trials_3.thisTrialN'
p1758
I9
sg31
g11
sa(dp1759
g32
g33
sg17
I1
sS'trials_3.thisN'
p1760
I9
sg34
g35
sg15
I10
sg46
g47
sg16
F0.05283817552117398
sg20
(lp1761
F1.5423907866206719
asg26
g30
sg14
(lp1762
g180
asg18
(lp1763
g382
asg54
g55
sS'trials_3.thisRepN'
p1764
I0
sg48
g49
sg50
g51
sg52
g53
sS'trials_3.thisIndex'
p1765
g434
sg24
g25
sg19
I0
sS'trials_3.thisTrialN'
p1766
I9
sg31
g11
sa(dp1767
g32
g33
sg17
I1
sS'trials_3.thisN'
p1768
I0
sg34
g35
sg15
I1
sg46
g442
sg16
F0.052100123939453624
sg20
(lp1769
F30.893789084631862
asg26
g30
sg14
(lp1770
g872
asg18
(lp1771
S'num_7'
p1772
asg54
g450
sS'trials_3.thisRepN'
p1773
I0
sg48
g444
sg50
g446
sg52
g448
sS'trials_3.thisIndex'
p1774
g27
(g408
S'\x00\x00\x00\x00'
tRp1775
sg24
g25
sg19
I0
sS'trials_3.thisTrialN'
p1776
I0
sg31
g11
sa(dp1777
g32
g33
sg17
I1
sS'trials_3.thisN'
p1778
I0
sg34
g35
sg15
I1
sg46
g442
sg16
F0.053334996242483612
sg20
(lp1779
F1.5578000237146625
asg26
g30
sg14
(lp1780
g883
asg18
(lp1781
S'num_1'
p1782
asg54
g450
sS'trials_3.thisRepN'
p1783
I0
sg48
g444
sg50
g446
sg52
g448
sS'trials_3.thisIndex'
p1784
g1775
sg24
g25
sg19
I0
sS'trials_3.thisTrialN'
p1785
I0
sg31
g11
sa(dp1786
g32
g33
sg17
I1
sS'trials_3.thisN'
p1787
I0
sg34
g35
sg15
I1
sg46
g442
sg16
F0.058372536765091354
sg20
(lp1788
F2.8699601517801057
asg26
g30
sg14
(lp1789
g894
asg18
(lp1790
S'num_4'
p1791
asg54
g450
sS'trials_3.thisRepN'
p1792
I0
sg48
g444
sg50
g446
sg52
g448
sS'trials_3.thisIndex'
p1793
g1775
sg24
g25
sg19
I0
sS'trials_3.thisTrialN'
p1794
I0
sg31
g11
sa(dp1795
g32
g33
sg17
I0
sS'trials_3.thisN'
p1796
I0
sg34
g35
sg15
I1
sg46
g442
sg16
F0.055895817800774239
sg20
(lp1797
F0.0003035898698726669
aF1.5551276123587741
asg26
g30
sg14
(lp1798
g180
asg18
(lp1799
S'num_1'
p1800
aS'num_0'
p1801
asg54
g450
sS'trials_3.thisRepN'
p1802
I0
sg48
g444
sg50
g446
sg52
g448
sS'trials_3.thisIndex'
p1803
g1775
sg24
g25
sg19
I0
sS'trials_3.thisTrialN'
p1804
I0
sg31
g11
sa(dp1805
g32
g33
sg17
I0
sS'trials_3.thisN'
p1806
I0
sg34
g35
sg15
I1
sg46
g442
sg16
F0.051898687957873335
sg20
(lp1807
F0.00028882063270430081
aF1.2913716067196219
asg26
g30
sg14
(lp1808
g180
asg18
(lp1809
S'num_1'
p1810
aS'num_0'
p1811
asg54
g450
sS'trials_3.thisRepN'
p1812
I0
sg48
g444
sg50
g446
sg52
g448
sS'trials_3.thisIndex'
p1813
g1775
sg24
g25
sg19
I0
sS'trials_3.thisTrialN'
p1814
I0
sg31
g11
sa(dp1815
g32
g33
sg17
I1
sS'trials_3.thisN'
p1816
I0
sg34
g35
sg15
I1
sg46
g442
sg16
F0.050801251611119369
sg20
(lp1817
F2.1106954300266807
asg26
g30
sg14
(lp1818
g894
asg18
(lp1819
S'num_4'
p1820
asg54
g450
sS'trials_3.thisRepN'
p1821
I0
sg48
g444
sg50
g446
sg52
g448
sS'trials_3.thisIndex'
p1822
g1775
sg24
g25
sg19
I0
sS'trials_3.thisTrialN'
p1823
I0
sg31
g11
sa(dp1824
g32
g33
sg17
I1
sS'trials_3.thisN'
p1825
I0
sg34
g35
sg15
I1
sg46
g442
sg16
F0.044427095152059337
sg20
(lp1826
F4.9845768141858571
asg26
g30
sg14
(lp1827
g883
asg18
(lp1828
S'num_1'
p1829
asg54
g450
sS'trials_3.thisRepN'
p1830
I0
sg48
g444
sg50
g446
sg52
g448
sS'trials_3.thisIndex'
p1831
g1775
sg24
g25
sg19
I0
sS'trials_3.thisTrialN'
p1832
I0
sg31
g11
sa(dp1833
g32
g33
sg17
I1
sS'trials_3.thisN'
p1834
I0
sg34
g35
sg15
I1
sg46
g442
sg16
F0.05728248503874056
sg20
(lp1835
F0.85384978619549656
asg26
g30
sg14
(lp1836
g180
asg18
(lp1837
g655
asg54
g450
sS'trials_3.thisRepN'
p1838
I0
sg48
g444
sg50
g446
sg52
g448
sS'trials_3.thisIndex'
p1839
g1775
sg24
g25
sg19
I0
sS'trials_3.thisTrialN'
p1840
I0
sg31
g11
sa(dp1841
g32
g33
sg17
I1
sS'trials_3.thisN'
p1842
I1
sg34
g35
sg15
I2
sg46
g442
sg16
F0.050817251616535941
sg20
(lp1843
F1.2587746702665754
asg26
g30
sg14
(lp1844
g872
asg18
(lp1845
S'num_7'
p1846
asg54
g450
sS'trials_3.thisRepN'
p1847
I0
sg48
g444
sg50
g446
sg52
g448
sS'trials_3.thisIndex'
p1848
g27
(g408
S'\x01\x00\x00\x00'
tRp1849
sg24
g25
sg19
I0
sS'trials_3.thisTrialN'
p1850
I1
sg31
g11
sa(dp1851
g32
g33
sg17
I1
sS'trials_3.thisN'
p1852
I1
sg34
g35
sg15
I2
sg46
g442
sg16
F0.053872842614509864
sg20
(lp1853
F1.6887682825690717
asg26
g30
sg14
(lp1854
g883
asg18
(lp1855
S'num_1'
p1856
asg54
g450
sS'trials_3.thisRepN'
p1857
I0
sg48
g444
sg50
g446
sg52
g448
sS'trials_3.thisIndex'
p1858
g1849
sg24
g25
sg19
I0
sS'trials_3.thisTrialN'
p1859
I1
sg31
g11
sa(dp1860
g32
g33
sg17
I1
sS'trials_3.thisN'
p1861
I1
sg34
g35
sg15
I2
sg46
g442
sg16
F0.055417458632291527
sg20
(lp1862
F1.3064075103211508
asg26
g30
sg14
(lp1863
g894
asg18
(lp1864
S'num_4'
p1865
asg54
g450
sS'trials_3.thisRepN'
p1866
I0
sg48
g444
sg50
g446
sg52
g448
sS'trials_3.thisIndex'
p1867
g1849
sg24
g25
sg19
I0
sS'trials_3.thisTrialN'
p1868
I1
sg31
g11
sa(dp1869
g32
g33
sg17
I1
sS'trials_3.thisN'
p1870
I1
sg34
g35
sg15
I2
sg46
g442
sg16
F0.050597764347912744
sg20
(lp1871
F0.64442611053527799
asg26
g30
sg14
(lp1872
g180
asg18
(lp1873
S'num_0'
p1874
asg54
g450
sS'trials_3.thisRepN'
p1875
I0
sg48
g444
sg50
g446
sg52
g448
sS'trials_3.thisIndex'
p1876
g1849
sg24
g25
sg19
I0
sS'trials_3.thisTrialN'
p1877
I1
sg31
g11
sa(dp1878
g32
g33
sg17
I1
sS'trials_3.thisN'
p1879
I1
sg34
g35
sg15
I2
sg46
g442
sg16
F0.058509972721367376
sg20
(lp1880
F2.3195258746782201
asg26
g30
sg14
(lp1881
g180
asg18
(lp1882
S'num_0'
p1883
asg54
g450
sS'trials_3.thisRepN'
p1884
I0
sg48
g444
sg50
g446
sg52
g448
sS'trials_3.thisIndex'
p1885
g1849
sg24
g25
sg19
I0
sS'trials_3.thisTrialN'
p1886
I1
sg31
g11
sa(dp1887
g32
g33
sg17
I1
sS'trials_3.thisN'
p1888
I1
sg34
g35
sg15
I2
sg46
g442
sg16
F0.058784434371773386
sg20
(lp1889
F1.9030190371340723
asg26
g30
sg14
(lp1890
g894
asg18
(lp1891
S'num_4'
p1892
asg54
g450
sS'trials_3.thisRepN'
p1893
I0
sg48
g444
sg50
g446
sg52
g448
sS'trials_3.thisIndex'
p1894
g1849
sg24
g25
sg19
I0
sS'trials_3.thisTrialN'
p1895
I1
sg31
g11
sa(dp1896
g32
g33
sg17
I1
sS'trials_3.thisN'
p1897
I1
sg34
g35
sg15
I2
sg46
g442
sg16
F0.05129150822176598
sg20
(lp1898
F1.3580661981795856
asg26
g30
sg14
(lp1899
g883
asg18
(lp1900
S'num_1'
p1901
asg54
g450
sS'trials_3.thisRepN'
p1902
I0
sg48
g444
sg50
g446
sg52
g448
sS'trials_3.thisIndex'
p1903
g1849
sg24
g25
sg19
I0
sS'trials_3.thisTrialN'
p1904
I1
sg31
g11
sa(dp1905
g32
g33
sg17
I1
sS'trials_3.thisN'
p1906
I1
sg34
g35
sg15
I2
sg46
g442
sg16
F0.055302176533587044
sg20
(lp1907
F0.40535483296480379
asg26
g30
sg14
(lp1908
g180
asg18
(lp1909
g666
asg54
g450
sS'trials_3.thisRepN'
p1910
I0
sg48
g444
sg50
g446
sg52
g448
sS'trials_3.thisIndex'
p1911
g1849
sg24
g25
sg19
I0
sS'trials_3.thisTrialN'
p1912
I1
sg31
g11
sa(dp1913
g32
g33
sg17
I1
sS'trials_3.thisN'
p1914
I2
sg34
g35
sg15
I3
sg46
g442
sg16
F0.051263610774185508
sg20
(lp1915
F1.2428017406346044
asg26
g30
sg14
(lp1916
g872
asg18
(lp1917
S'num_7'
p1918
asg54
g450
sS'trials_3.thisRepN'
p1919
I0
sg48
g444
sg50
g446
sg52
g448
sS'trials_3.thisIndex'
p1920
g27
(g408
S'\x02\x00\x00\x00'
tRp1921
sg24
g25
sg19
I0
sS'trials_3.thisTrialN'
p1922
I2
sg31
g11
sa(dp1923
g32
g33
sg17
I0
sS'trials_3.thisN'
p1924
I2
sg34
g35
sg15
I3
sg46
g442
sg16
F0.051943816182756564
sg20
(lp1925
F1.4429002842662157
aF1.5589036139099335
asg26
g30
sg14
(lp1926
g883
asg18
(lp1927
S'num_4'
p1928
aS'num_1'
p1929
asg54
g450
sS'trials_3.thisRepN'
p1930
I0
sg48
g444
sg50
g446
sg52
g448
sS'trials_3.thisIndex'
p1931
g1921
sg24
g25
sg19
I0
sS'trials_3.thisTrialN'
p1932
I2
sg31
g11
sa(dp1933
g32
g33
sg17
I0
sS'trials_3.thisN'
p1934
I2
sg34
g35
sg15
I3
sg46
g442
sg16
F0.058920229301293148
sg20
(lp1935
F1.2025461343764619
aF1.2194306541241531
aF1.2522745650348952
asg26
g30
sg14
(lp1936
g894
asg18
(lp1937
S'num_7'
p1938
aS'num_1'
p1939
aS'num_4'
p1940
asg54
g450
sS'trials_3.thisRepN'
p1941
I0
sg48
g444
sg50
g446
sg52
g448
sS'trials_3.thisIndex'
p1942
g1921
sg24
g25
sg19
I0
sS'trials_3.thisTrialN'
p1943
I2
sg31
g11
sa(dp1944
g32
g33
sg17
I0
sS'trials_3.thisN'
p1945
I2
sg34
g35
sg15
I3
sg46
g442
sg16
F0.053410483451443724
sg20
(lp1946
F0.00070564131601713598
aF0.074569876745954389
aF0.1236730763775995
aF0.42711648291879101
aF0.44039730888107442
aF0.82336567112361081
aF0.8435560383804841
aF1.140790211604326
aF1.1737087892106501
aF1.4235333019605605
aF1.6578259109010105
asg26
g30
sg14
(lp1947
g180
asg18
(lp1948
S'num_0'
p1949
aS'num_1'
p1950
aS'num_7'
p1951
aS'num_7'
p1952
aS'num_1'
p1953
aS'num_0'
p1954
aS'num_4'
p1955
aS'num_1'
p1956
aS'num_7'
p1957
aS'num_4'
p1958
aS'num_0'
p1959
aS'num_7'
p1960
aS'num_4'
p1961
aS'num_4'
p1962
aS'num_0'
p1963
asg54
g450
sS'trials_3.thisRepN'
p1964
I0
sg48
g444
sg50
g446
sg52
g448
sS'trials_3.thisIndex'
p1965
g1921
sg24
g25
sg19
I0
sS'trials_3.thisTrialN'
p1966
I2
sg31
g11
sa(dp1967
g32
g33
sg17
I0
sS'trials_3.thisN'
p1968
I2
sg34
g35
sg15
I3
sg46
g442
sg16
F0.052273252214945387
sg20
(lp1969
F0.00066502591289463453
aF0.47523506676225225
aF0.74209753521790844
aF1.3088649472265388
aF1.3253178770537488
aF1.7935601204335399
aF2.0089677985524759
aF2.4924646122926788
aF2.6925303353964409
aF3.0089546703384258
aF3.1091959422337823
aF3.2922401198920852
aF3.4582623418500589
aF3.4751817334072257
asg26
g30
sg14
(lp1970
g180
asg18
(lp1971
S'num_1'
p1972
aS'num_4'
p1973
aS'num_7'
p1974
aS'num_7'
p1975
aS'num_4'
p1976
aS'num_7'
p1977
aS'num_7'
p1978
aS'num_4'
p1979
aS'num_7'
p1980
aS'num_4'
p1981
aS'num_4'
p1982
aS'num_7'
p1983
aS'num_7'
p1984
aS'num_4'
p1985
aS'num_7'
p1986
aS'num_1'
p1987
aS'num_0'
p1988
asg54
g450
sS'trials_3.thisRepN'
p1989
I0
sg48
g444
sg50
g446
sg52
g448
sS'trials_3.thisIndex'
p1990
g1921
sg24
g25
sg19
I0
sS'trials_3.thisTrialN'
p1991
I2
sg31
g11
sa(dp1992
g32
g33
sg17
I0
sS'trials_3.thisN'
p1993
I2
sg34
g35
sg15
I3
sg46
g442
sg16
F0.05360125275910832
sg20
(lp1994
F0.67499186666464084
aF0.87568528233532561
asg26
g30
sg14
(lp1995
g894
asg18
(lp1996
S'num_7'
p1997
aS'num_4'
p1998
asg54
g450
sS'trials_3.thisRepN'
p1999
I0
sg48
g444
sg50
g446
sg52
g448
sS'trials_3.thisIndex'
p2000
g1921
sg24
g25
sg19
I0
sS'trials_3.thisTrialN'
p2001
I2
sg31
g11
sa(dp2002
g32
g33
sg17
I0
sS'trials_3.thisN'
p2003
I2
sg34
g35
sg15
I3
sg46
g442
sg16
F0.06488043687568279
sg20
(lp2004
F0.0015515903796767816
aF0.093600858912395779
aF0.32817736540528131
aF0.52718462653865572
aF0.65959042444592342
asg26
g30
sg14
(lp2005
g883
asg18
(lp2006
S'num_7'
p2007
aS'num_4'
p2008
aS'num_7'
p2009
aS'num_4'
p2010
aS'num_7'
p2011
aS'num_4'
p2012
aS'num_1'
p2013
asg54
g450
sS'trials_3.thisRepN'
p2014
I0
sg48
g444
sg50
g446
sg52
g448
sS'trials_3.thisIndex'
p2015
g1921
sg24
g25
sg19
I0
sS'trials_3.thisTrialN'
p2016
I2
sg31
g11
sa(dp2017
g32
g33
sg17
I0
sS'trials_3.thisN'
p2018
I2
sg34
g35
sg15
I3
sg46
g442
sg16
F0.044750787590601249
sg20
(lp2019
F0.00029661550797754899
aF0.41776345344260335
aF0.76666862222191412
aF1.0003593847613956
aF1.2334807111728878
asg26
g30
sg14
(lp2020
g180
asg18
(lp2021
g677
ag678
ag679
ag680
ag681
ag682
ag683
asg54
g450
sS'trials_3.thisRepN'
p2022
I0
sg48
g444
sg50
g446
sg52
g448
sS'trials_3.thisIndex'
p2023
g1921
sg24
g25
sg19
I0
sS'trials_3.thisTrialN'
p2024
I2
sg31
g11
sa(dp2025
g32
g33
sg17
I0
sS'trials_3.thisN'
p2026
I3
sg34
g35
sg15
I4
sg46
g442
sg16
F0.053534380935161607
sg20
(lp2027
F0.00028102575743105263
aF0.27299334276540321
asg26
g30
sg14
(lp2028
g872
asg18
(lp2029
S'num_4'
p2030
aS'num_1'
p2031
aS'num_7'
p2032
aS'num_4'
p2033
aS'num_7'
p2034
asg54
g450
sS'trials_3.thisRepN'
p2035
I0
sg48
g444
sg50
g446
sg52
g448
sS'trials_3.thisIndex'
p2036
g27
(g408
S'\x03\x00\x00\x00'
tRp2037
sg24
g25
sg19
I0
sS'trials_3.thisTrialN'
p2038
I3
sg31
g11
sa(dp2039
g32
g33
sg17
I0
sS'trials_3.thisN'
p2040
I3
sg34
g35
sg15
I4
sg46
g442
sg16
F0.052145252164336853
sg20
(lp2041
F0.00052882072850479744
aF0.0073120029992423952
aF0.32514474877461907
aF0.37596035936803673
asg26
g30
sg14
(lp2042
g883
asg18
(lp2043
S'num_4'
p2044
aS'num_1'
p2045
aS'num_7'
p2046
aS'num_0'
p2047
aS'num_1'
p2048
asg54
g450
sS'trials_3.thisRepN'
p2049
I0
sg48
g444
sg50
g446
sg52
g448
sS'trials_3.thisIndex'
p2050
g2037
sg24
g25
sg19
I0
sS'trials_3.thisTrialN'
p2051
I3
sg31
g11
sa(dp2052
g32
g33
sg17
I0
sS'trials_3.thisN'
p2053
I3
sg34
g35
sg15
I4
sg46
g442
sg16
F0.061069563515047776
sg20
(lp2054
F0.00028389755243551917
aF0.18281853654116276
aF0.53266032109240768
asg26
g30
sg14
(lp2055
g894
asg18
(lp2056
S'num_4'
p2057
aS'num_1'
p2058
aS'num_0'
p2059
aS'num_7'
p2060
aS'num_4'
p2061
asg54
g450
sS'trials_3.thisRepN'
p2062
I0
sg48
g444
sg50
g446
sg52
g448
sS'trials_3.thisIndex'
p2063
g2037
sg24
g25
sg19
I0
sS'trials_3.thisTrialN'
p2064
I3
sg31
g11
sa(dp2065
g32
g33
sg17
I0
sS'trials_3.thisN'
p2066
I3
sg34
g35
sg15
I4
sg46
g442
sg16
F0.057999613538413541
sg20
(lp2067
F0.76946616183340666
aF1.1530540115090844
aF1.4034212937112898
aF1.4538176220776222
asg26
g30
sg14
(lp2068
g180
asg18
(lp2069
S'num_1'
p2070
aS'num_7'
p2071
aS'num_1'
p2072
aS'num_0'
p2073
asg54
g450
sS'trials_3.thisRepN'
p2074
I0
sg48
g444
sg50
g446
sg52
g448
sS'trials_3.thisIndex'
p2075
g2037
sg24
g25
sg19
I0
sS'trials_3.thisTrialN'
p2076
I3
sg31
g11
sa(dp2077
g32
g33
sg17
I0
sS'trials_3.thisN'
p2078
I3
sg34
g35
sg15
I4
sg46
g442
sg16
F0.048560430179350078
sg20
(lp2079
F0.41299586174136493
aF0.48102255631965818
aF0.56288187195241335
aF0.86258127695691655
aF0.8965841627032205
aF0.92978909940211452
aF1.2639873903535772
aF1.2963816600567952
aF2.1793514581950149
aF6.6132810721173882
asg26
g30
sg14
(lp2080
g180
asg18
(lp2081
S'num_1'
p2082
aS'num_0'
p2083
aS'num_4'
p2084
aS'num_7'
p2085
aS'num_7'
p2086
aS'num_0'
p2087
aS'num_4'
p2088
aS'num_1'
p2089
aS'num_7'
p2090
aS'num_1'
p2091
aS'num_0'
p2092
aS'num_4'
p2093
aS'num_4'
p2094
aS'num_0'
p2095
asg54
g450
sS'trials_3.thisRepN'
p2096
I0
sg48
g444
sg50
g446
sg52
g448
sS'trials_3.thisIndex'
p2097
g2037
sg24
g25
sg19
I0
sS'trials_3.thisTrialN'
p2098
I3
sg31
g11
sa(dp2099
g32
g33
sg17
I1
sS'trials_3.thisN'
p2100
I3
sg34
g35
sg15
I4
sg46
g442
sg16
F0.05077745672679157
sg20
(lp2101
F1.610304660636757
asg26
g30
sg14
(lp2102
g894
asg18
(lp2103
S'num_4'
p2104
asg54
g450
sS'trials_3.thisRepN'
p2105
I0
sg48
g444
sg50
g446
sg52
g448
sS'trials_3.thisIndex'
p2106
g2037
sg24
g25
sg19
I0
sS'trials_3.thisTrialN'
p2107
I3
sg31
g11
sa(dp2108
g32
g33
sg17
I0
sS'trials_3.thisN'
p2109
I3
sg34
g35
sg15
I4
sg46
g442
sg16
F0.059725973220338346
sg20
(lp2110
F0.0004594873680616729
aF0.21842306396865752
aF0.46854501273628557
aF1.2685609306900005
asg26
g30
sg14
(lp2111
g883
asg18
(lp2112
S'num_4'
p2113
aS'num_4'
p2114
aS'num_4'
p2115
aS'num_1'
p2116
asg54
g450
sS'trials_3.thisRepN'
p2117
I0
sg48
g444
sg50
g446
sg52
g448
sS'trials_3.thisIndex'
p2118
g2037
sg24
g25
sg19
I0
sS'trials_3.thisTrialN'
p2119
I3
sg31
g11
sa(dp2120
g32
g33
sg17
I0
sS'trials_3.thisN'
p2121
I3
sg34
g35
sg15
I4
sg46
g442
sg16
F0.045184428792708786
sg20
(lp2122
F0.00038030784708098508
aF0.14908929193188669
asg26
g30
sg14
(lp2123
g180
asg18
(lp2124
g694
ag695
asg54
g450
sS'trials_3.thisRepN'
p2125
I0
sg48
g444
sg50
g446
sg52
g448
sS'trials_3.thisIndex'
p2126
g2037
sg24
g25
sg19
I0
sS'trials_3.thisTrialN'
p2127
I3
sg31
g11
sa(dp2128
g32
g33
sg17
I0
sS'trials_3.thisN'
p2129
I4
sg34
g35
sg15
I5
sg46
g442
sg16
F0.048754481540527195
sg20
(lp2130
F0.00030194883947842754
aF0.42719402141301543
aF0.72732870865002042
aF1.2783652424077445
aF1.5623013588956383
aF2.0611425891875115
aF2.3447915260694572
aF2.5955497827926592
asg26
g30
sg14
(lp2131
g872
asg18
(lp2132
S'num_1'
p2133
aS'num_0'
p2134
aS'num_4'
p2135
aS'num_1'
p2136
aS'num_7'
p2137
aS'num_4'
p2138
aS'num_1'
p2139
aS'num_4'
p2140
aS'num_1'
p2141
aS'num_7'
p2142
asg54
g450
sS'trials_3.thisRepN'
p2143
I0
sg48
g444
sg50
g446
sg52
g448
sS'trials_3.thisIndex'
p2144
g27
(g408
S'\x04\x00\x00\x00'
tRp2145
sg24
g25
sg19
I0
sS'trials_3.thisTrialN'
p2146
I4
sg31
g11
sa(dp2147
g32
g33
sg17
I0
sS'trials_3.thisN'
p2148
I4
sg34
g35
sg15
I5
sg46
g442
sg16
F0.059812537358084228
sg20
(lp2149
F0.00030687191974720918
aF0.067296848119440256
aF0.68382551131071523
aF1.0680964381899685
aF1.401308472330129
aF1.6835375111913891
aF1.9514449031557888
asg26
g30
sg14
(lp2150
g883
asg18
(lp2151
S'num_4'
p2152
aS'num_7'
p2153
aS'num_7'
p2154
aS'num_4'
p2155
aS'num_4'
p2156
aS'num_4'
p2157
aS'num_1'
p2158
asg54
g450
sS'trials_3.thisRepN'
p2159
I0
sg48
g444
sg50
g446
sg52
g448
sS'trials_3.thisIndex'
p2160
g2145
sg24
g25
sg19
I0
sS'trials_3.thisTrialN'
p2161
I4
sg31
g11
sa(dp2162
g32
g33
sg17
I0
sS'trials_3.thisN'
p2163
I4
sg34
g35
sg15
I5
sg46
g442
sg16
F0.056494792410376249
sg20
(lp2164
F0.0002818462708091829
aF0.27120749587993487
aF0.52046052121295361
aF1.1038548118376639
asg26
g30
sg14
(lp2165
g894
asg18
(lp2166
S'num_1'
p2167
aS'num_1'
p2168
aS'num_0'
p2169
aS'num_4'
p2170
asg54
g450
sS'trials_3.thisRepN'
p2171
I0
sg48
g444
sg50
g446
sg52
g448
sS'trials_3.thisIndex'
p2172
g2145
sg24
g25
sg19
I0
sS'trials_3.thisTrialN'
p2173
I4
sg31
g11
sa(dp2174
g32
g33
sg17
I0
sS'trials_3.thisN'
p2175
I4
sg34
g35
sg15
I5
sg46
g442
sg16
F0.060129255438369
sg20
(lp2176
F0.0008320003398694098
aF0.25020112828497076
aF0.83343131627771072
aF1.0500767384910432
aF1.5844014705216978
aF1.8181041305033432
aF2.3667866120122198
aF2.6174041507292714
aF2.8840746191053768
aF3.416750940203201
aF3.6169828172205598
aF4.350103938500979
aF5.6012408620445058
aF5.9672660378528235
aF6.3504764514764247
aF6.8329394186403078
asg26
g30
sg14
(lp2177
g180
asg18
(lp2178
S'num_4'
p2179
aS'num_7'
p2180
aS'num_4'
p2181
aS'num_1'
p2182
aS'num_4'
p2183
aS'num_7'
p2184
aS'num_1'
p2185
aS'num_1'
p2186
aS'num_7'
p2187
aS'num_4'
p2188
aS'num_1'
p2189
aS'num_0'
p2190
aS'num_4'
p2191
aS'num_4'
p2192
aS'num_1'
p2193
aS'num_7'
p2194
aS'num_4'
p2195
aS'num_1'
p2196
aS'num_0'
p2197
asg54
g450
sS'trials_3.thisRepN'
p2198
I0
sg48
g444
sg50
g446
sg52
g448
sS'trials_3.thisIndex'
p2199
g2145
sg24
g25
sg19
I0
sS'trials_3.thisTrialN'
p2200
I4
sg31
g11
sa(dp2201
g32
g33
sg17
I1
sS'trials_3.thisN'
p2202
I4
sg34
g35
sg15
I5
sg46
g442
sg16
F0.056613356562593253
sg20
(lp2203
F1.7370066613366362
asg26
g30
sg14
(lp2204
g180
asg18
(lp2205
S'num_0'
p2206
asg54
g450
sS'trials_3.thisRepN'
p2207
I0
sg48
g444
sg50
g446
sg52
g448
sS'trials_3.thisIndex'
p2208
g2145
sg24
g25
sg19
I0
sS'trials_3.thisTrialN'
p2209
I4
sg31
g11
sa(dp2210
g32
g33
sg17
I0
sS'trials_3.thisN'
p2211
I4
sg34
g35
sg15
I5
sg46
g442
sg16
F0.060675306944176555
sg20
(lp2212
F1.7999125332971744
aF2.2339479934162227
asg26
g30
sg14
(lp2213
g894
asg18
(lp2214
S'num_7'
p2215
aS'num_4'
p2216
asg54
g450
sS'trials_3.thisRepN'
p2217
I0
sg48
g444
sg50
g446
sg52
g448
sS'trials_3.thisIndex'
p2218
g2145
sg24
g25
sg19
I0
sS'trials_3.thisTrialN'
p2219
I4
sg31
g11
sa(dp2220
g32
g33
sg17
I0
sS'trials_3.thisN'
p2221
I4
sg34
g35
sg15
I5
sg46
g442
sg16
F0.054057047818787396
sg20
(lp2222
F0.0002818462708091829
aF0.62364989688285277
aF1.3908727757407178
aF1.8419617813160585
aF2.2917785812423972
asg26
g30
sg14
(lp2223
g883
asg18
(lp2224
S'num_1'
p2225
aS'num_0'
p2226
aS'num_7'
p2227
aS'num_4'
p2228
aS'num_1'
p2229
asg54
g450
sS'trials_3.thisRepN'
p2230
I0
sg48
g444
sg50
g446
sg52
g448
sS'trials_3.thisIndex'
p2231
g2145
sg24
g25
sg19
I0
sS'trials_3.thisTrialN'
p2232
I4
sg31
g11
sa(dp2233
g32
g33
sg17
I0
sS'trials_3.thisN'
p2234
I4
sg34
g35
sg15
I5
sg46
g442
sg16
F0.054530483910639305
sg20
(lp2235
F0.0005214361117396038
aF1.1055655817690422
aF1.6213081523310393
aF2.1050576841262227
aF2.9711782445847348
asg26
g30
sg14
(lp2236
g180
asg18
(lp2237
g706
ag707
ag708
ag709
ag710
asg54
g450
sS'trials_3.thisRepN'
p2238
I0
sg48
g444
sg50
g446
sg52
g448
sS'trials_3.thisIndex'
p2239
g2145
sg24
g25
sg19
I0
sS'trials_3.thisTrialN'
p2240
I4
sg31
g11
sa(dp2241
g32
g33
sg17
I1
sS'trials_3.thisN'
p2242
I5
sg34
g35
sg15
I6
sg46
g442
sg16
F0.048633866106683854
sg20
(lp2243
F21.642699750853353
asg26
g30
sg14
(lp2244
g872
asg18
(lp2245
S'num_7'
p2246
asg54
g450
sS'trials_3.thisRepN'
p2247
I0
sg48
g444
sg50
g446
sg52
g448
sS'trials_3.thisIndex'
p2248
g27
(g408
S'\x05\x00\x00\x00'
tRp2249
sg24
g25
sg19
I0
sS'trials_3.thisTrialN'
p2250
I5
sg31
g11
sa(dp2251
g32
g33
sg17
I1
sS'trials_3.thisN'
p2252
I5
sg34
g35
sg15
I6
sg46
g442
sg16
F0.053204534648102708
sg20
(lp2253
F3.5063796949252719
asg26
g30
sg14
(lp2254
g883
asg18
(lp2255
S'num_1'
p2256
asg54
g450
sS'trials_3.thisRepN'
p2257
I0
sg48
g444
sg50
g446
sg52
g448
sS'trials_3.thisIndex'
p2258
g2249
sg24
g25
sg19
I0
sS'trials_3.thisTrialN'
p2259
I5
sg31
g11
sa(dp2260
g32
g33
sg17
I0
sS'trials_3.thisN'
p2261
I5
sg34
g35
sg15
I6
sg46
g442
sg16
F0.058916536989272572
sg20
(lp2262
F4.4548789558466524
aF4.9687667564176081
asg26
g30
sg14
(lp2263
g894
asg18
(lp2264
S'num_7'
p2265
aS'num_4'
p2266
aS'num_4'
p2267
asg54
g450
sS'trials_3.thisRepN'
p2268
I0
sg48
g444
sg50
g446
sg52
g448
sS'trials_3.thisIndex'
p2269
g2249
sg24
g25
sg19
I0
sS'trials_3.thisTrialN'
p2270
I5
sg31
g11
sa(dp2271
g32
g33
sg17
I0
sS'trials_3.thisN'
p2272
I5
sg34
g35
sg15
I6
sg46
g442
sg16
F0.051257046670798445
sg20
(lp2273
F0.00052266688362578861
aF0.14243410971903359
aF0.34341593576027662
aF0.37754600104744895
aF1.0444800182485778
aF1.5265298570375307
aF1.9588643933821004
aF2.7439838949685509
aF3.3428038329475385
aF3.8424618840872427
aF4.1929366945405491
asg26
g30
sg14
(lp2274
g180
asg18
(lp2275
S'num_4'
p2276
aS'num_4'
p2277
aS'num_4'
p2278
aS'num_4'
p2279
aS'num_7'
p2280
aS'num_1'
p2281
aS'num_4'
p2282
aS'num_7'
p2283
aS'num_4'
p2284
aS'num_1'
p2285
aS'num_1'
p2286
aS'num_4'
p2287
aS'num_4'
p2288
aS'num_0'
p2289
asg54
g450
sS'trials_3.thisRepN'
p2290
I0
sg48
g444
sg50
g446
sg52
g448
sS'trials_3.thisIndex'
p2291
g2249
sg24
g25
sg19
I0
sS'trials_3.thisTrialN'
p2292
I5
sg31
g11
sa(dp2293
g32
g33
sg17
I0
sS'trials_3.thisN'
p2294
I5
sg34
g35
sg15
I6
sg46
g442
sg16
F0.05669951044183108
sg20
(lp2295
F0.00052471816525212489
aF0.33751111282253987
aF0.48741558457913925
aF0.85456650443666149
aF1.0043897453906538
asg26
g30
sg14
(lp2296
g180
asg18
(lp2297
S'num_7'
p2298
aS'num_0'
p2299
aS'num_7'
p2300
aS'num_4'
p2301
aS'num_1'
p2302
aS'num_0'
p2303
asg54
g450
sS'trials_3.thisRepN'
p2304
I0
sg48
g444
sg50
g446
sg52
g448
sS'trials_3.thisIndex'
p2305
g2249
sg24
g25
sg19
I0
sS'trials_3.thisTrialN'
p2306
I5
sg31
g11
sa(dp2307
g32
g33
sg17
I0
sS'trials_3.thisN'
p2308
I5
sg34
g35
sg15
I6
sg46
g442
sg16
F0.057785049350059126
sg20
(lp2309
F0.00033230782719329
aF0.053396944986161543
aF0.38612938918231521
asg26
g30
sg14
(lp2310
g894
asg18
(lp2311
S'num_0'
p2312
aS'num_4'
p2313
aS'num_4'
p2314
asg54
g450
sS'trials_3.thisRepN'
p2315
I0
sg48
g444
sg50
g446
sg52
g448
sS'trials_3.thisIndex'
p2316
g2249
sg24
g25
sg19
I0
sS'trials_3.thisTrialN'
p2317
I5
sg31
g11
sa(dp2318
g32
g33
sg17
I0
sS'trials_3.thisN'
p2319
I5
sg34
g35
sg15
I6
sg46
g442
sg16
F0.057598792860517278
sg20
(lp2320
F0.00032943603218882345
aF0.16977853119169595
asg26
g30
sg14
(lp2321
g883
asg18
(lp2322
S'num_0'
p2323
aS'num_4'
p2324
aS'num_1'
p2325
asg54
g450
sS'trials_3.thisRepN'
p2326
I0
sg48
g444
sg50
g446
sg52
g448
sS'trials_3.thisIndex'
p2327
g2249
sg24
g25
sg19
I0
sS'trials_3.thisTrialN'
p2328
I5
sg31
g11
sa(dp2329
g32
g33
sg17
I0
sS'trials_3.thisN'
p2330
I5
sg34
g35
sg15
I6
sg46
g442
sg16
F0.053453150136192562
sg20
(lp2331
F0.00068676951195811853
aF0.12364230713501456
aF0.2409978424620931
asg26
g30
sg14
(lp2332
g180
asg18
(lp2333
g721
ag722
ag723
ag724
ag725
ag726
asg54
g450
sS'trials_3.thisRepN'
p2334
I0
sg48
g444
sg50
g446
sg52
g448
sS'trials_3.thisIndex'
p2335
g2249
sg24
g25
sg19
I0
sS'trials_3.thisTrialN'
p2336
I5
sg31
g11
sa(dp2337
g32
g33
sg17
I0
sS'trials_3.thisN'
p2338
I6
sg34
g35
sg15
I7
sg46
g442
sg16
F0.049936430743400706
sg20
(lp2339
F0.00032164115691557527
aF0.07592085166106699
aF0.10929727560869651
aF0.22590532344838721
aF0.25976379887652001
asg26
g30
sg14
(lp2340
g872
asg18
(lp2341
S'num_4'
p2342
aS'num_1'
p2343
aS'num_1'
p2344
aS'num_4'
p2345
aS'num_7'
p2346
aS'num_4'
p2347
aS'num_1'
p2348
aS'num_0'
p2349
aS'num_7'
p2350
asg54
g450
sS'trials_3.thisRepN'
p2351
I0
sg48
g444
sg50
g446
sg52
g448
sS'trials_3.thisIndex'
p2352
g27
(g408
S'\x06\x00\x00\x00'
tRp2353
sg24
g25
sg19
I0
sS'trials_3.thisTrialN'
p2354
I6
sg31
g11
sa(dp2355
g32
g33
sg17
I0
sS'trials_3.thisN'
p2356
I6
sg34
g35
sg15
I7
sg46
g442
sg16
F0.059469152602105169
sg20
(lp2357
F0.00032574372380622663
aF0.00071753875818103552
aF0.068164130530931288
asg26
g30
sg14
(lp2358
g883
asg18
(lp2359
S'num_4'
p2360
aS'num_0'
p2361
aS'num_7'
p2362
aS'num_4'
p2363
aS'num_1'
p2364
asg54
g450
sS'trials_3.thisRepN'
p2365
I0
sg48
g444
sg50
g446
sg52
g448
sS'trials_3.thisIndex'
p2366
g2353
sg24
g25
sg19
I0
sS'trials_3.thisTrialN'
p2367
I6
sg31
g11
sa(dp2368
g32
g33
sg17
I0
sS'trials_3.thisN'
p2369
I6
sg34
g35
sg15
I7
sg46
g442
sg16
F0.050128020564443432
sg20
(lp2370
F0.00056287202824023552
aF0.043524120417714585
aF0.21027167600914254
asg26
g30
sg14
(lp2371
g894
asg18
(lp2372
S'num_0'
p2373
aS'num_7'
p2374
aS'num_4'
p2375
aS'num_1'
p2376
aS'num_0'
p2377
aS'num_7'
p2378
aS'num_4'
p2379
asg54
g450
sS'trials_3.thisRepN'
p2380
I0
sg48
g444
sg50
g446
sg52
g448
sS'trials_3.thisIndex'
p2381
g2353
sg24
g25
sg19
I0
sS'trials_3.thisTrialN'
p2382
I6
sg31
g11
sa(dp2383
g32
g33
sg17
I0
sS'trials_3.thisN'
p2384
I6
sg34
g35
sg15
I7
sg46
g442
sg16
F0.050908738834550604
sg20
(lp2385
F0.00079548750727553852
aF0.34241367893991992
aF0.40954437314576353
aF0.47564942590543069
asg26
g30
sg14
(lp2386
g180
asg18
(lp2387
S'num_1'
p2388
aS'num_7'
p2389
aS'num_4'
p2390
aS'num_0'
p2391
aS'num_7'
p2392
aS'num_7'
p2393
aS'num_4'
p2394
aS'num_0'
p2395
asg54
g450
sS'trials_3.thisRepN'
p2396
I0
sg48
g444
sg50
g446
sg52
g448
sS'trials_3.thisIndex'
p2397
g2353
sg24
g25
sg19
I0
sS'trials_3.thisTrialN'
p2398
I6
sg31
g11
sa(dp2399
g32
g33
sg17
I0
sS'trials_3.thisN'
p2400
I6
sg34
g35
sg15
I7
sg46
g442
sg16
F0.057757972415856784
sg20
(lp2401
F0.00068800028384430334
aF0.43632140977206291
aF0.7044162889906147
aF0.72027434677875135
aF0.98741332817007788
asg26
g30
sg14
(lp2402
g180
asg18
(lp2403
S'num_4'
p2404
aS'num_0'
p2405
aS'num_1'
p2406
aS'num_7'
p2407
aS'num_7'
p2408
aS'num_1'
p2409
aS'num_4'
p2410
aS'num_0'
p2411
asg54
g450
sS'trials_3.thisRepN'
p2412
I0
sg48
g444
sg50
g446
sg52
g448
sS'trials_3.thisIndex'
p2413
g2353
sg24
g25
sg19
I0
sS'trials_3.thisTrialN'
p2414
I6
sg31
g11
sa(dp2415
g32
g33
sg17
I0
sS'trials_3.thisN'
p2416
I6
sg34
g35
sg15
I7
sg46
g442
sg16
F0.064158795550611103
sg20
(lp2417
F0.00031835910340305418
aF0.13185728486496373
aF0.23225568502675742
asg26
g30
sg14
(lp2418
g894
asg18
(lp2419
S'num_4'
p2420
aS'num_1'
p2421
aS'num_7'
p2422
aS'num_4'
p2423
asg54
g450
sS'trials_3.thisRepN'
p2424
I0
sg48
g444
sg50
g446
sg52
g448
sS'trials_3.thisIndex'
p2425
g2353
sg24
g25
sg19
I0
sS'trials_3.thisTrialN'
p2426
I6
sg31
g11
sa(dp2427
g32
g33
sg17
I0
sS'trials_3.thisN'
p2428
I6
sg34
g35
sg15
I7
sg46
g442
sg16
F0.047493352816672996
sg20
(lp2429
F0.00033148731745313853
aF0.046370890820981003
aF0.063632846620748751
aF0.14660518835080438
aF0.24732481941464357
aF0.48054788945592009
aF0.63033379706030246
aF0.98136778722982854
aF0.9967437935374619
aF1.2636887235639733
aF1.4965741524429177
aF1.6965291062697361
aF1.8806502074476157
aF2.0801981867480208
aF2.2134314721770352
aF2.2462117933173431
aF2.4466360806727607
aF2.5961606548371492
aF2.6296831301260681
aF2.8134612568064767
aF2.9969017423209152
aF3.030336012445332
aF3.0470519167392922
aF3.0637682312917605
asg26
g30
sg14
(lp2430
g883
asg18
(lp2431
S'num_4'
p2432
aS'num_7'
p2433
aS'num_4'
p2434
aS'num_0'
p2435
aS'num_4'
p2436
aS'num_1'
p2437
aS'num_7'
p2438
aS'num_4'
p2439
aS'num_7'
p2440
aS'num_4'
p2441
aS'num_0'
p2442
aS'num_7'
p2443
aS'num_4'
p2444
aS'num_7'
p2445
aS'num_4'
p2446
aS'num_4'
p2447
aS'num_7'
p2448
aS'num_4'
p2449
aS'num_7'
p2450
aS'num_4'
p2451
aS'num_7'
p2452
aS'num_4'
p2453
aS'num_7'
p2454
aS'num_4'
p2455
aS'num_1'
p2456
aS'num_7'
p2457
aS'num_4'
p2458
aS'num_7'
p2459
aS'num_4'
p2460
aS'num_4'
p2461
aS'num_7'
p2462
aS'num_0'
p2463
aS'num_1'
p2464
asg54
g450
sS'trials_3.thisRepN'
p2465
I0
sg48
g444
sg50
g446
sg52
g448
sS'trials_3.thisIndex'
p2466
g2353
sg24
g25
sg19
I0
sS'trials_3.thisTrialN'
p2467
I6
sg31
g11
sa(dp2468
g32
g33
sg17
I0
sS'trials_3.thisN'
p2469
I6
sg34
g35
sg15
I7
sg46
g442
sg16
F0.033252526463911636
sg20
(lp2470
F0.00028143601593910716
aF0.58307675203104736
aF0.81291725658229552
aF0.96271383085695561
aF1.1633444772705843
aF1.3965363678107678
aF1.7290944529631815
aF1.7464142549397366
aF1.9969333320768783
aF2.1624964769216604
aF2.3300132635959017
aF2.529724935273407
aF2.8293074171524495
aF2.8796048736840021
aF8.1125177897520189
asg26
g30
sg14
(lp2471
g180
asg18
(lp2472
g737
ag738
ag739
ag740
ag741
ag742
ag743
ag744
ag745
ag746
ag747
ag748
ag749
ag750
ag751
ag752
ag753
ag754
ag755
ag756
ag757
ag758
ag759
ag760
ag761
ag762
asg54
g450
sS'trials_3.thisRepN'
p2473
I0
sg48
g444
sg50
g446
sg52
g448
sS'trials_3.thisIndex'
p2474
g2353
sg24
g25
sg19
I0
sS'trials_3.thisTrialN'
p2475
I6
sg31
g11
sa(dp2476
g32
g33
sg17
I0
sS'trials_3.thisN'
p2477
I7
sg34
g35
sg15
I8
sg46
g442
sg16
F0.061408025194396032
sg20
(lp2478
F0.00034092321584466845
aF0.48114153072310728
asg26
g30
sg14
(lp2479
g872
asg18
(lp2480
S'num_1'
p2481
aS'num_7'
p2482
aS'num_4'
p2483
aS'num_7'
p2484
asg54
g450
sS'trials_3.thisRepN'
p2485
I0
sg48
g444
sg50
g446
sg52
g448
sS'trials_3.thisIndex'
p2486
g27
(g408
S'\x07\x00\x00\x00'
tRp2487
sg24
g25
sg19
I0
sS'trials_3.thisTrialN'
p2488
I7
sg31
g11
sa(dp2489
g32
g33
sg17
I0
sS'trials_3.thisN'
p2490
I7
sg34
g35
sg15
I8
sg46
g442
sg16
F0.050955097827682039
sg20
(lp2491
F0.00047261557847377844
aF0.21062983000228996
aF0.51030092730434262
aF0.54382668464677408
asg26
g30
sg14
(lp2492
g883
asg18
(lp2493
S'num_0'
p2494
aS'num_4'
p2495
aS'num_4'
p2496
aS'num_4'
p2497
aS'num_4'
p2498
aS'num_4'
p2499
aS'num_1'
p2500
asg54
g450
sS'trials_3.thisRepN'
p2501
I0
sg48
g444
sg50
g446
sg52
g448
sS'trials_3.thisIndex'
p2502
g2487
sg24
g25
sg19
I0
sS'trials_3.thisTrialN'
p2503
I7
sg31
g11
sa(dp2504
g32
g33
sg17
I0
sS'trials_3.thisN'
p2505
I7
sg34
g35
sg15
I8
sg46
g442
sg16
F0.047462993828958133
sg20
(lp2506
F0.00022769239876652136
aF0.031516320621449267
aF0.09687921923250542
aF0.5467230960894085
aF0.79804627612247714
aF0.86387358517822577
aF0.93057145869533997
aF1.1978749529735069
aF1.5310381665804016
aF1.7821919106427231
aF2.0304381663336244
asg26
g30
sg14
(lp2507
g894
asg18
(lp2508
S'num_4'
p2509
aS'num_1'
p2510
aS'num_0'
p2511
aS'num_7'
p2512
aS'num_4'
p2513
aS'num_1'
p2514
aS'num_0'
p2515
aS'num_7'
p2516
aS'num_7'
p2517
aS'num_4'
p2518
aS'num_0'
p2519
aS'num_1'
p2520
aS'num_7'
p2521
aS'num_4'
p2522
aS'num_1'
p2523
aS'num_0'
p2524
aS'num_7'
p2525
aS'num_4'
p2526
aS'num_7'
p2527
aS'num_4'
p2528
aS'num_4'
p2529
asg54
g450
sS'trials_3.thisRepN'
p2530
I0
sg48
g444
sg50
g446
sg52
g448
sS'trials_3.thisIndex'
p2531
g2487
sg24
g25
sg19
I0
sS'trials_3.thisTrialN'
p2532
I7
sg31
g11
sa(dp2533
g32
g33
sg17
I0
sS'trials_3.thisN'
p2534
I7
sg34
g35
sg15
I8
sg46
g442
sg16
F0.050085353879694594
sg20
(lp2535
F0.000333538595441496
aF0.19404520781245083
aF0.46140244570415234
aF0.6779896114821895
aF0.92824284235393861
aF1.1776103292759217
aF1.2097346501468564
aF1.7121529075484432
aF1.9615236765203008
aF2.2609441070526373
aF2.5608560249638685
aF2.8443002438143594
aF3.1440775975679571
aF3.4302935098639864
aF3.7440126129258715
aF4.01090174806086
aF4.2280608115106588
aF4.4300215097500768
aF4.8125431025800935
aF5.2298556840432866
aF5.2439553821350273
asg26
g30
sg14
(lp2536
g180
asg18
(lp2537
S'num_7'
p2538
aS'num_4'
p2539
aS'num_7'
p2540
aS'num_4'
p2541
aS'num_7'
p2542
aS'num_4'
p2543
aS'num_1'
p2544
aS'num_7'
p2545
aS'num_4'
p2546
aS'num_1'
p2547
aS'num_7'
p2548
aS'num_4'
p2549
aS'num_4'
p2550
aS'num_1'
p2551
aS'num_4'
p2552
aS'num_7'
p2553
aS'num_7'
p2554
aS'num_4'
p2555
aS'num_1'
p2556
aS'num_4'
p2557
aS'num_1'
p2558
aS'num_0'
p2559
aS'num_7'
p2560
aS'num_4'
p2561
aS'num_1'
p2562
aS'num_4'
p2563
aS'num_1'
p2564
aS'num_0'
p2565
aS'num_4'
p2566
aS'num_1'
p2567
aS'num_4'
p2568
aS'num_1'
p2569
aS'num_7'
p2570
aS'num_4'
p2571
aS'num_1'
p2572
aS'num_4'
p2573
aS'num_1'
p2574
aS'num_0'
p2575
aS'num_7'
p2576
aS'num_4'
p2577
aS'num_1'
p2578
aS'num_7'
p2579
aS'num_4'
p2580
aS'num_7'
p2581
aS'num_4'
p2582
aS'num_1'
p2583
aS'num_4'
p2584
aS'num_1'
p2585
aS'num_0'
p2586
aS'num_7'
p2587
aS'num_4'
p2588
aS'num_1'
p2589
aS'num_0'
p2590
asg54
g450
sS'trials_3.thisRepN'
p2591
I0
sg48
g444
sg50
g446
sg52
g448
sS'trials_3.thisIndex'
p2592
g2487
sg24
g25
sg19
I0
sS'trials_3.thisTrialN'
p2593
I7
sg31
g11
sa(dp2594
g32
g33
sg17
I0
sS'trials_3.thisN'
p2595
I7
sg34
g35
sg15
I8
sg46
g442
sg16
F0.057435921000433154
sg20
(lp2596
F0.00051979508862132207
aF0.15383308875243529
aF0.48805353356146952
aF0.82034166988523793
aF1.1372816973489535
aF1.4536859297186311
aF1.7542329248135502
aF2.0214490344405931
aF2.2371861485917179
asg26
g30
sg14
(lp2597
g180
asg18
(lp2598
S'num_4'
p2599
aS'num_1'
p2600
aS'num_4'
p2601
aS'num_1'
p2602
aS'num_0'
p2603
aS'num_4'
p2604
aS'num_1'
p2605
aS'num_0'
p2606
aS'num_4'
p2607
aS'num_1'
p2608
aS'num_0'
p2609
aS'num_7'
p2610
aS'num_4'
p2611
aS'num_1'
p2612
aS'num_1'
p2613
aS'num_0'
p2614
aS'num_4'
p2615
aS'num_1'
p2616
aS'num_1'
p2617
aS'num_0'
p2618
aS'num_0'
p2619
asg54
g450
sS'trials_3.thisRepN'
p2620
I0
sg48
g444
sg50
g446
sg52
g448
sS'trials_3.thisIndex'
p2621
g2487
sg24
g25
sg19
I0
sS'trials_3.thisTrialN'
p2622
I7
sg31
g11
sa(dp2623
g32
g33
sg17
I0
sS'trials_3.thisN'
p2624
I7
sg34
g35
sg15
I8
sg46
g442
sg16
F0.055161048272566404
sg20
(lp2625
F0.00047138480658759363
aF0.038920631352084456
aF0.28990617021918297
aF0.50677025918776053
aF0.73961466240507434
aF1.1064968642021995
asg26
g30
sg14
(lp2626
g894
asg18
(lp2627
S'num_0'
p2628
aS'num_0'
p2629
aS'num_0'
p2630
aS'num_0'
p2631
aS'num_0'
p2632
aS'num_0'
p2633
aS'num_4'
p2634
asg54
g450
sS'trials_3.thisRepN'
p2635
I0
sg48
g444
sg50
g446
sg52
g448
sS'trials_3.thisIndex'
p2636
g2487
sg24
g25
sg19
I0
sS'trials_3.thisTrialN'
p2637
I7
sg31
g11
sa(dp2638
g32
g33
sg17
I0
sS'trials_3.thisN'
p2639
I7
sg34
g35
sg15
I8
sg46
g442
sg16
F0.048594071220577462
sg20
(lp2640
F0.0003277950054325629
aF0.010704824904678389
aF0.12892230930083315
aF0.27917508889368037
aF0.46252818975699483
aF0.86212876395075
aF1.0798137763340492
aF1.2132583439015434
aF1.3955152391863521
aF1.5627772565239866
aF1.7460253317040042
aF1.8132019746481092
asg26
g30
sg14
(lp2641
g883
asg18
(lp2642
S'num_4'
p2643
aS'num_4'
p2644
aS'num_7'
p2645
aS'num_4'
p2646
aS'num_7'
p2647
aS'num_7'
p2648
aS'num_4'
p2649
aS'num_1'
p2650
aS'num_0'
p2651
aS'num_4'
p2652
aS'num_7'
p2653
aS'num_4'
p2654
aS'num_1'
p2655
asg54
g450
sS'trials_3.thisRepN'
p2656
I0
sg48
g444
sg50
g446
sg52
g448
sS'trials_3.thisIndex'
p2657
g2487
sg24
g25
sg19
I0
sS'trials_3.thisTrialN'
p2658
I7
sg31
g11
sa(dp2659
g32
g33
sg17
I0
sS'trials_3.thisN'
p2660
I7
sg34
g35
sg15
I8
sg46
g442
sg16
F0.054454586443171138
sg20
(lp2661
F0.00033271808570134453
aF0.14031718577098218
aF0.32336587625468383
aF0.34037798579811351
asg26
g30
sg14
(lp2662
g180
asg18
(lp2663
g773
ag774
ag775
ag776
ag777
ag778
ag779
asg54
g450
sS'trials_3.thisRepN'
p2664
I0
sg48
g444
sg50
g446
sg52
g448
sS'trials_3.thisIndex'
p2665
g2487
sg24
g25
sg19
I0
sS'trials_3.thisTrialN'
p2666
I7
sg31
g11
sa(dp2667
g32
g33
sg17
I0
sS'trials_3.thisN'
p2668
I8
sg34
g35
sg15
I9
sg46
g442
sg16
F0.051164328684535576
sg20
(lp2669
F0.00068635925345006399
aF0.057430997920164373
aF0.27461139471415663
aF0.32516156929705176
asg26
g30
sg14
(lp2670
g872
asg18
(lp2671
S'num_7'
p2672
aS'num_4'
p2673
aS'num_0'
p2674
aS'num_7'
p2675
asg54
g450
sS'trials_3.thisRepN'
p2676
I0
sg48
g444
sg50
g446
sg52
g448
sS'trials_3.thisIndex'
p2677
g27
(g408
S'\x08\x00\x00\x00'
tRp2678
sg24
g25
sg19
I0
sS'trials_3.thisTrialN'
p2679
I8
sg31
g11
sa(dp2680
g32
g33
sg17
I0
sS'trials_3.thisN'
p2681
I8
sg34
g35
sg15
I9
sg46
g442
sg16
F0.057411305606365204
sg20
(lp2682
F1.4191493001635536
aF1.5210976496782678
aF2.2183582434263371
aF2.2702401108654158
aF2.7028979293936573
aF2.7352770195975609
asg26
g30
sg14
(lp2683
g883
asg18
(lp2684
S'num_0'
p2685
aS'num_7'
p2686
aS'num_4'
p2687
aS'num_1'
p2688
aS'num_0'
p2689
aS'num_7'
p2690
aS'num_4'
p2691
aS'num_1'
p2692
aS'num_7'
p2693
aS'num_4'
p2694
aS'num_1'
p2695
asg54
g450
sS'trials_3.thisRepN'
p2696
I0
sg48
g444
sg50
g446
sg52
g448
sS'trials_3.thisIndex'
p2697
g2678
sg24
g25
sg19
I0
sS'trials_3.thisTrialN'
p2698
I8
sg31
g11
sa(dp2699
g32
g33
sg17
I0
sS'trials_3.thisN'
p2700
I8
sg34
g35
sg15
I9
sg46
g442
sg16
F0.058230998249200638
sg20
(lp2701
F0.000288820629066322
aF0.070226900606940035
aF0.2714154959685402
aF0.45451957108525676
aF0.67182386536660488
aF0.87157902423859923
aF1.0880250617556158
aF1.6043633248700644
aF1.8216967473636032
aF1.9547470583602262
asg26
g30
sg14
(lp2702
g894
asg18
(lp2703
S'num_7'
p2704
aS'num_4'
p2705
aS'num_1'
p2706
aS'num_0'
p2707
aS'num_7'
p2708
aS'num_7'
p2709
aS'num_4'
p2710
aS'num_7'
p2711
aS'num_4'
p2712
aS'num_1'
p2713
aS'num_7'
p2714
aS'num_4'
p2715
aS'num_1'
p2716
aS'num_7'
p2717
aS'num_4'
p2718
aS'num_1'
p2719
aS'num_7'
p2720
aS'num_4'
p2721
aS'num_7'
p2722
aS'num_4'
p2723
aS'num_1'
p2724
aS'num_1'
p2725
aS'num_1'
p2726
aS'num_0'
p2727
aS'num_4'
p2728
asg54
g450
sS'trials_3.thisRepN'
p2729
I0
sg48
g444
sg50
g446
sg52
g448
sS'trials_3.thisIndex'
p2730
g2678
sg24
g25
sg19
I0
sS'trials_3.thisTrialN'
p2731
I8
sg31
g11
sa(dp2732
g32
g33
sg17
I0
sS'trials_3.thisN'
p2733
I8
sg34
g35
sg15
I9
sg46
g442
sg16
F0.052209252186003141
sg20
(lp2734
F0.00085046188542037271
aF0.14230077632964822
aF0.24187620179509395
aF0.35810845460946439
asg26
g30
sg14
(lp2735
g180
asg18
(lp2736
S'num_0'
p2737
aS'num_4'
p2738
aS'num_0'
p2739
aS'num_4'
p2740
aS'num_1'
p2741
aS'num_0'
p2742
aS'num_4'
p2743
aS'num_0'
p2744
asg54
g450
sS'trials_3.thisRepN'
p2745
I0
sg48
g444
sg50
g446
sg52
g448
sS'trials_3.thisIndex'
p2746
g2678
sg24
g25
sg19
I0
sS'trials_3.thisTrialN'
p2747
I8
sg31
g11
sa(dp2748
g32
g33
sg17
I0
sS'trials_3.thisN'
p2749
I8
sg34
g35
sg15
I9
sg46
g442
sg16
F0.058606793274520896
sg20
(lp2750
F0.00069579515911755152
aF0.10281973448945791
aF0.23587578907972784
asg26
g30
sg14
(lp2751
g180
asg18
(lp2752
S'num_7'
p2753
aS'num_0'
p2754
aS'num_7'
p2755
aS'num_1'
p2756
aS'num_4'
p2757
aS'num_0'
p2758
asg54
g450
sS'trials_3.thisRepN'
p2759
I0
sg48
g444
sg50
g446
sg52
g448
sS'trials_3.thisIndex'
p2760
g2678
sg24
g25
sg19
I0
sS'trials_3.thisTrialN'
p2761
I8
sg31
g11
sa(dp2762
g32
g33
sg17
I0
sS'trials_3.thisN'
p2763
I8
sg34
g35
sg15
I9
sg46
g442
sg16
F0.050634277184144594
sg20
(lp2764
F0.0004996925126761198
aF0.077528647190774791
aF0.14435287973174127
aF0.34357429479860002
aF0.42748653435046435
aF0.71022511188493809
aF0.94365700252456008
aF1.0610170506733994
aF1.1774052009859588
aF1.2770466777619731
aF1.4769507597738993
aF1.5276904728962108
aF1.7603194914117921
asg26
g30
sg14
(lp2765
g894
asg18
(lp2766
S'num_4'
p2767
aS'num_0'
p2768
aS'num_4'
p2769
aS'num_1'
p2770
aS'num_0'
p2771
aS'num_7'
p2772
aS'num_4'
p2773
aS'num_1'
p2774
aS'num_7'
p2775
aS'num_4'
p2776
aS'num_7'
p2777
aS'num_7'
p2778
aS'num_0'
p2779
aS'num_7'
p2780
aS'num_0'
p2781
aS'num_0'
p2782
aS'num_7'
p2783
aS'num_4'
p2784
aS'num_4'
p2785
asg54
g450
sS'trials_3.thisRepN'
p2786
I0
sg48
g444
sg50
g446
sg52
g448
sS'trials_3.thisIndex'
p2787
g2678
sg24
g25
sg19
I0
sS'trials_3.thisTrialN'
p2788
I8
sg31
g11
sa(dp2789
g32
g33
sg17
I0
sS'trials_3.thisN'
p2790
I8
sg34
g35
sg15
I9
sg46
g442
sg16
F0.052868944767396897
sg20
(lp2791
F0.00054071816703071818
aF0.091198806643660646
aF0.19059453973022755
aF0.30808956229157047
aF0.42503771283372771
aF0.59156906320640701
aF2.0082428751775296
aF2.7914321195603407
aF2.8081964341326966
aF2.9419618223437283
aF3.0250305743720673
aF3.1912287964005372
aF3.2590515934571158
aF3.4084231419146818
aF3.4420046941559121
aF3.6411920579230355
aF3.6910181296480005
aF3.8746994357716176
asg26
g30
sg14
(lp2792
g883
asg18
(lp2793
S'num_0'
p2794
aS'num_4'
p2795
aS'num_0'
p2796
aS'num_4'
p2797
aS'num_0'
p2798
aS'num_4'
p2799
aS'num_0'
p2800
aS'num_4'
p2801
aS'num_0'
p2802
aS'num_4'
p2803
aS'num_7'
p2804
aS'num_7'
p2805
aS'num_4'
p2806
aS'num_1'
p2807
aS'num_0'
p2808
aS'num_7'
p2809
aS'num_4'
p2810
aS'num_1'
p2811
aS'num_0'
p2812
aS'num_7'
p2813
aS'num_4'
p2814
aS'num_1'
p2815
aS'num_0'
p2816
aS'num_7'
p2817
aS'num_4'
p2818
aS'num_1'
p2819
aS'num_0'
p2820
aS'num_7'
p2821
aS'num_4'
p2822
aS'num_1'
p2823
asg54
g450
sS'trials_3.thisRepN'
p2824
I0
sg48
g444
sg50
g446
sg52
g448
sS'trials_3.thisIndex'
p2825
g2678
sg24
g25
sg19
I0
sS'trials_3.thisTrialN'
p2826
I8
sg31
g11
sa(dp2827
g32
g33
sg17
I0
sS'trials_3.thisN'
p2828
I8
sg34
g35
sg15
I9
sg46
g442
sg16
F0.050100943633879069
sg20
(lp2829
F0.0013300518294272479
aF0.043908941090194276
aF9.2110634712043975
aF9.428482227067434
aF9.5259009337023599
aF10.859876455331687
aF11.391851647938893
asg26
g30
sg14
(lp2830
g180
asg18
(lp2831
g790
ag791
ag792
ag793
ag794
ag795
ag796
ag797
ag798
ag799
ag800
ag801
ag802
ag803
ag804
ag805
ag806
ag807
asg54
g450
sS'trials_3.thisRepN'
p2832
I0
sg48
g444
sg50
g446
sg52
g448
sS'trials_3.thisIndex'
p2833
g2678
sg24
g25
sg19
I0
sS'trials_3.thisTrialN'
p2834
I8
sg31
g11
sa(dp2835
g32
g33
sg17
I0
sS'trials_3.thisN'
p2836
I9
sg34
g35
sg15
I10
sg46
g442
sg16
F0.054451714648166671
sg20
(lp2837
F0.00031466679502045736
aF0.19010469337445102
aF0.80519048418136663
aF1.2570060541547718
aF1.5221479065221502
aF1.7222152706526686
aF1.9225205835973611
aF2.1388538005558075
aF2.3390220878027321
aF2.5718271063888096
aF2.772318265564536
asg26
g30
sg14
(lp2838
g872
asg18
(lp2839
S'num_4'
p2840
aS'num_7'
p2841
aS'num_1'
p2842
aS'num_7'
p2843
aS'num_4'
p2844
aS'num_1'
p2845
aS'num_0'
p2846
aS'num_7'
p2847
aS'num_4'
p2848
aS'num_1'
p2849
aS'num_0'
p2850
aS'num_1'
p2851
aS'num_0'
p2852
aS'num_0'
p2853
aS'num_0'
p2854
aS'num_0'
p2855
aS'num_4'
p2856
aS'num_4'
p2857
aS'num_4'
p2858
aS'num_7'
p2859
asg54
g450
sS'trials_3.thisRepN'
p2860
I0
sg48
g444
sg50
g446
sg52
g448
sS'trials_3.thisIndex'
p2861
g859
sg24
g25
sg19
I0
sS'trials_3.thisTrialN'
p2862
I9
sg31
g11
sa(dp2863
g32
g33
sg17
I0
sS'trials_3.thisN'
p2864
I9
sg34
g35
sg15
I10
sg46
g442
sg16
F0.051221354347944725
sg20
(lp2865
F0.00055056433120626025
aF0.12555615407472942
aF0.39435134127415949
aF0.65984355275941198
aF1.0096381578005094
aF1.5265622673105099
asg26
g30
sg14
(lp2866
g883
asg18
(lp2867
S'num_7'
p2868
aS'num_7'
p2869
aS'num_7'
p2870
aS'num_7'
p2871
aS'num_4'
p2872
aS'num_4'
p2873
aS'num_4'
p2874
aS'num_1'
p2875
asg54
g450
sS'trials_3.thisRepN'
p2876
I0
sg48
g444
sg50
g446
sg52
g448
sS'trials_3.thisIndex'
p2877
g859
sg24
g25
sg19
I0
sS'trials_3.thisTrialN'
p2878
I9
sg31
g11
sa(dp2879
g32
g33
sg17
I0
sS'trials_3.thisN'
p2880
I9
sg34
g35
sg15
I10
sg46
g442
sg16
F0.054923919968132395
sg20
(lp2881
F0.00035241040313849226
aF0.18953361621970544
aF0.45675423866850906
aF0.98776163600632572
aF1.4889934313832782
asg26
g30
sg14
(lp2882
g894
asg18
(lp2883
S'num_1'
p2884
aS'num_0'
p2885
aS'num_0'
p2886
aS'num_1'
p2887
aS'num_0'
p2888
aS'num_4'
p2889
asg54
g450
sS'trials_3.thisRepN'
p2890
I0
sg48
g444
sg50
g446
sg52
g448
sS'trials_3.thisIndex'
p2891
g859
sg24
g25
sg19
I0
sS'trials_3.thisTrialN'
p2892
I9
sg31
g11
sa(dp2893
g32
g33
sg17
I0
sS'trials_3.thisN'
p2894
I9
sg34
g35
sg15
I10
sg46
g442
sg16
F0.051808841766614933
sg20
(lp2895
F0.00083117982649127953
aF0.19167843761169934
aF0.45882398310641292
aF0.75917733709866297
aF1.0257378567112028
aF1.3088883318523585
asg26
g30
sg14
(lp2896
g180
asg18
(lp2897
S'num_4'
p2898
aS'num_7'
p2899
aS'num_4'
p2900
aS'num_4'
p2901
aS'num_4'
p2902
aS'num_4'
p2903
aS'num_4'
p2904
aS'num_0'
p2905
asg54
g450
sS'trials_3.thisRepN'
p2906
I0
sg48
g444
sg50
g446
sg52
g448
sS'trials_3.thisIndex'
p2907
g859
sg24
g25
sg19
I0
sS'trials_3.thisTrialN'
p2908
I9
sg31
g11
sa(dp2909
g32
g33
sg17
I0
sS'trials_3.thisN'
p2910
I9
sg34
g35
sg15
I10
sg46
g442
sg16
F0.052638380566349952
sg20
(lp2911
F0.00045661556941922754
aF0.05849520348419901
asg26
g30
sg14
(lp2912
g180
asg18
(lp2913
S'num_0'
p2914
aS'num_0'
p2915
asg54
g450
sS'trials_3.thisRepN'
p2916
I0
sg48
g444
sg50
g446
sg52
g448
sS'trials_3.thisIndex'
p2917
g859
sg24
g25
sg19
I0
sS'trials_3.thisTrialN'
p2918
I9
sg31
g11
sa(dp2919
g32
g33
sg17
I0
sS'trials_3.thisN'
p2920
I9
sg34
g35
sg15
I10
sg46
g442
sg16
F0.05136371338085155
sg20
(lp2921
F0.00036964117680327035
aF2.3437318333271833
aF4.2928764278476592
aF4.6096855834621238
aF4.8760311286278011
aF5.592610704661638
asg26
g30
sg14
(lp2922
g894
asg18
(lp2923
S'num_1'
p2924
aS'num_0'
p2925
aS'num_0'
p2926
aS'num_0'
p2927
aS'num_0'
p2928
aS'num_4'
p2929
asg54
g450
sS'trials_3.thisRepN'
p2930
I0
sg48
g444
sg50
g446
sg52
g448
sS'trials_3.thisIndex'
p2931
g859
sg24
g25
sg19
I0
sS'trials_3.thisTrialN'
p2932
I9
sg31
g11
sa(dp2933
g32
g33
sg17
I0
sS'trials_3.thisN'
p2934
I9
sg34
g35
sg15
I10
sg46
g442
sg16
F0.049318994591885712
sg20
(lp2935
F0.00034912834598799236
aF0.078329057778319111
aF0.29490965944933123
aF0.4612531123093504
aF0.7116023432208749
asg26
g30
sg14
(lp2936
g883
asg18
(lp2937
S'num_4'
p2938
aS'num_4'
p2939
aS'num_4'
p2940
aS'num_4'
p2941
aS'num_1'
p2942
asg54
g450
sS'trials_3.thisRepN'
p2943
I0
sg48
g444
sg50
g446
sg52
g448
sS'trials_3.thisIndex'
p2944
g859
sg24
g25
sg19
I0
sS'trials_3.thisTrialN'
p2945
I9
sg31
g11
sa(dp2946
g32
g33
sg17
I0
sS'trials_3.thisN'
p2947
I9
sg34
g35
sg15
I10
sg46
g442
sg16
F0.057812126280623488
sg20
(lp2948
F0.00070851311102160253
aF0.23566737873261445
aF0.68540458888310241
asg26
g30
sg14
(lp2949
g180
asg18
(lp2950
g818
ag819
ag820
ag821
ag822
asg54
g450
sS'trials_3.thisRepN'
p2951
I0
sg48
g444
sg50
g446
sg52
g448
sS'trials_3.thisIndex'
p2952
g859
sg24
g25
sg19
I0
sS'trials_3.thisTrialN'
p2953
I9
sg31
g11
sasS'loops'
p2954
(lp2955
g1
(g38
g3
NtRp2956
(dp2957
g41
Nsg42
(lp2958
sg57
I410801104
sg10
g399
sg6
I-1
sg59
I1
sg21
I01
sg22
g23
sg60
g1
(g61
g44
(dp2959
g70
g63
(g64
g65
g66
S'b'
tRp2960
(I1
(I1
I1
tg68
I00
S'\x00\x00\x80?'
S'\x00'
Ntbsg393
g63
(g64
g65
g66
S'b'
tRp2961
(I1
(I1
I1
tg68
I00
S'\x00\x00\x00\x00'
S'\x00'
NtbstRp2962
(dp2963
g397
(dp2964
g70
I01
sg393
I01
ssg399
g2956
sg400
(lp2965
g70
ag393
asg402
(lp2966
I1
aI1
asbsg404
g405
sg406
g73
(g65
(I0
tS'b'
tRp2967
(I1
(I1
I1
tg408
I00
S'\x00\x00\x00\x00'
tbsg409
I01
sg410
I1
sg411
I-1
sg412
(lp2968
g1
(g43
g44
(dp2969
VpawPatrol1
p2970
Vmin1.png
p2971
sVpawPatrol2
p2972
Vmin2.png
p2973
sVpawPatrol3
p2974
Vmin3.png
p2975
sVpawPatrol4
p2976
Vmin4.png
p2977
sVblank
p2978
VallBlank.png
p2979
stRp2980
asg432
Nsg433
g27
(g408
S'\x00\x00\x00\x00'
tRp2981
sg435
I1
sg436
I0
sg437
I1
sbag39
ag438
asS'savePickle'
p2982
I00
sb.